; ModuleID = 'llvm_ops.cpp'
target datalayout = "e-m:e-i64:64-f80:128-n8:16:32:64-S128"
target triple = "x86_64-unknown-linux-gnu"

%"class.std::ios_base::Init" = type { i8 }
%"class.OSL::Dual2" = type { float, float, float }
%"class.OSL::Dual2.0" = type { %"class.Imath_2_2::Vec3", %"class.Imath_2_2::Vec3", %"class.Imath_2_2::Vec3" }
%"class.Imath_2_2::Vec3" = type { float, float, float }
%"class.Imath_2_2::Matrix44" = type { [4 x [4 x float]] }
%"class.Imath_2_2::Vec3.1" = type { %"class.OSL::Dual2", %"class.OSL::Dual2", %"class.OSL::Dual2" }
%"class.Iex_2_2::BaseExc" = type { %"class.std::exception", %"class.std::basic_string", %"class.std::basic_string" }
%"class.std::exception" = type { i32 (...)** }
%"class.std::basic_string" = type { %"struct.std::basic_string<char, std::char_traits<char>, std::allocator<char> >::_Alloc_hider" }
%"struct.std::basic_string<char, std::char_traits<char>, std::allocator<char> >::_Alloc_hider" = type { i8* }
%"class.Imath_2_2::SingMatrixExc" = type { %"class.Iex_2_2::MathExc" }
%"class.Iex_2_2::MathExc" = type { %"class.Iex_2_2::BaseExc" }

@_ZStL8__ioinit = internal global %"class.std::ios_base::Init" zeroinitializer, align 1
@__dso_handle = global i8* null, align 8
@_ZTVN10__cxxabiv120__si_class_type_infoE = external global i8*
@_ZTSN7Iex_2_27MathExcE = linkonce_odr constant [19 x i8] c"N7Iex_2_27MathExcE\00"
@_ZTIN7Iex_2_27BaseExcE = external constant i8*
@_ZTIN7Iex_2_27MathExcE = linkonce_odr constant { i8*, i8*, i8* } { i8* bitcast (i8** getelementptr inbounds (i8** @_ZTVN10__cxxabiv120__si_class_type_infoE, i64 2) to i8*), i8* getelementptr inbounds ([19 x i8]* @_ZTSN7Iex_2_27MathExcE, i32 0, i32 0), i8* bitcast (i8** @_ZTIN7Iex_2_27BaseExcE to i8*) }
@.str = private unnamed_addr constant [31 x i8] c"Cannot invert singular matrix.\00", align 1
@_ZTSN9Imath_2_213SingMatrixExcE = linkonce_odr constant [28 x i8] c"N9Imath_2_213SingMatrixExcE\00"
@_ZTIN9Imath_2_213SingMatrixExcE = linkonce_odr constant { i8*, i8*, i8* } { i8* bitcast (i8** getelementptr inbounds (i8** @_ZTVN10__cxxabiv120__si_class_type_infoE, i64 2) to i8*), i8* getelementptr inbounds ([28 x i8]* @_ZTSN9Imath_2_213SingMatrixExcE, i32 0, i32 0), i8* bitcast ({ i8*, i8*, i8* }* @_ZTIN7Iex_2_27MathExcE to i8*) }
@_ZTVN9Imath_2_213SingMatrixExcE = linkonce_odr unnamed_addr constant [5 x i8*] [i8* null, i8* bitcast ({ i8*, i8*, i8* }* @_ZTIN9Imath_2_213SingMatrixExcE to i8*), i8* bitcast (void (%"class.Iex_2_2::BaseExc"*)* @_ZN7Iex_2_27BaseExcD2Ev to i8*), i8* bitcast (void (%"class.Imath_2_2::SingMatrixExc"*)* @_ZN9Imath_2_213SingMatrixExcD0Ev to i8*), i8* bitcast (i8* (%"class.Iex_2_2::BaseExc"*)* @_ZNK7Iex_2_27BaseExc4whatEv to i8*)]
@llvm.global_ctors = appending global [1 x { i32, void ()*, i8* }] [{ i32, void ()*, i8* } { i32 65535, void ()* @_GLOBAL__sub_I_llvm_ops.cpp, i8* null }]

declare void @_ZNSt8ios_base4InitC1Ev(%"class.std::ios_base::Init"*) #0

; Function Attrs: nounwind
declare void @_ZNSt8ios_base4InitD1Ev(%"class.std::ios_base::Init"*) #1

; Function Attrs: nounwind
declare i32 @__cxa_atexit(void (i8*)*, i8*, i8*) #2

; Function Attrs: nounwind readnone uwtable
define float @osl_sin_ff(float %a) #3 {
  %1 = fmul float %a, 0x3FD45F3060000000
  %2 = tail call float @copysignf(float 5.000000e-01, float %1) #12
  %3 = fadd float %1, %2
  %4 = fptosi float %3 to i32
  %5 = sitofp i32 %4 to float
  %6 = fmul float %5, -3.140625e+00
  %7 = fadd float %6, %a
  %8 = fmul float %5, 0xBF4FB40000000000
  %9 = fadd float %8, %7
  %10 = fmul float %5, 0xBE84440000000000
  %11 = fadd float %10, %9
  %12 = fmul float %5, 0xBD968C2340000000
  %13 = fadd float %12, %11
  %14 = fsub float 0x3FF921FB60000000, %13
  %15 = fsub float 0x3FF921FB60000000, %14
  %16 = fmul float %15, %15
  %17 = and i32 %4, 1
  %18 = icmp eq i32 %17, 0
  br i1 %18, label %_ZN11OpenImageIO4v1_78fast_sinEf.exit, label %19

; <label>:19                                      ; preds = %0
  %20 = fsub float -0.000000e+00, %15
  br label %_ZN11OpenImageIO4v1_78fast_sinEf.exit

_ZN11OpenImageIO4v1_78fast_sinEf.exit:            ; preds = %0, %19
  %.0.i = phi float [ %20, %19 ], [ %15, %0 ]
  %21 = fmul float %16, 0x3EC5E150E0000000
  %22 = fadd float %21, 0xBF29F75D60000000
  %23 = fmul float %16, %22
  %24 = fadd float %23, 0x3F8110EEE0000000
  %25 = fmul float %16, %24
  %26 = fadd float %25, 0xBFC55554C0000000
  %27 = fmul float %26, %.0.i
  %28 = fmul float %16, %27
  %29 = fadd float %.0.i, %28
  %30 = tail call float @fabsf(float %29) #12
  %31 = fcmp ogt float %30, 1.000000e+00
  %u.0.i = select i1 %31, float 0.000000e+00, float %29
  ret float %u.0.i
}

; Function Attrs: nounwind uwtable
define void @osl_sin_dfdf(i8* nocapture %r, i8* nocapture readonly %a) #4 {
  %1 = bitcast i8* %a to float*
  %2 = load float* %1, align 4, !tbaa !1
  %3 = fmul float %2, 0x3FD45F3060000000
  %4 = tail call float @copysignf(float 5.000000e-01, float %3) #12
  %5 = fadd float %3, %4
  %6 = fptosi float %5 to i32
  %7 = sitofp i32 %6 to float
  %8 = fmul float %7, -3.140625e+00
  %9 = fadd float %2, %8
  %10 = fmul float %7, 0xBF4FB40000000000
  %11 = fadd float %10, %9
  %12 = fmul float %7, 0xBE84440000000000
  %13 = fadd float %12, %11
  %14 = fmul float %7, 0xBD968C2340000000
  %15 = fadd float %14, %13
  %16 = fsub float 0x3FF921FB60000000, %15
  %17 = fsub float 0x3FF921FB60000000, %16
  %18 = fmul float %17, %17
  %19 = and i32 %6, 1
  %20 = icmp ne i32 %19, 0
  br i1 %20, label %21, label %23

; <label>:21                                      ; preds = %0
  %22 = fsub float -0.000000e+00, %17
  br label %23

; <label>:23                                      ; preds = %21, %0
  %.0.i.i = phi float [ %22, %21 ], [ %17, %0 ]
  %24 = fmul float %18, 0x3EC5E150E0000000
  %25 = fadd float %24, 0xBF29F75D60000000
  %26 = fmul float %18, %25
  %27 = fadd float %26, 0x3F8110EEE0000000
  %28 = fmul float %18, %27
  %29 = fadd float %28, 0xBFC55554C0000000
  %30 = fmul float %29, %.0.i.i
  %31 = fmul float %18, %30
  %32 = fadd float %.0.i.i, %31
  %33 = fmul float %18, 0xBE923DB120000000
  %34 = fadd float %33, 0x3EFA00F160000000
  %35 = fmul float %18, %34
  %36 = fadd float %35, 0xBF56C16B00000000
  %37 = fmul float %18, %36
  %38 = fadd float %37, 0x3FA5555540000000
  %39 = fmul float %18, %38
  %40 = fadd float %39, -5.000000e-01
  %41 = fmul float %18, %40
  %42 = fadd float %41, 1.000000e+00
  br i1 %20, label %43, label %_ZN3OSL8fast_sinERKNS_5Dual2IfEE.exit

; <label>:43                                      ; preds = %23
  %44 = fsub float -0.000000e+00, %42
  br label %_ZN3OSL8fast_sinERKNS_5Dual2IfEE.exit

_ZN3OSL8fast_sinERKNS_5Dual2IfEE.exit:            ; preds = %23, %43
  %cu.0.i.i = phi float [ %44, %43 ], [ %42, %23 ]
  %45 = tail call float @fabsf(float %32) #12
  %46 = fcmp ogt float %45, 1.000000e+00
  %su.0.i.i = select i1 %46, float 0.000000e+00, float %32
  %47 = tail call float @fabsf(float %cu.0.i.i) #12
  %48 = fcmp ogt float %47, 1.000000e+00
  %cu.1.i.i = select i1 %48, float 0.000000e+00, float %cu.0.i.i
  %49 = getelementptr inbounds i8* %a, i64 4
  %50 = bitcast i8* %49 to float*
  %51 = load float* %50, align 4, !tbaa !1
  %52 = fmul float %51, %cu.1.i.i
  %53 = getelementptr inbounds i8* %a, i64 8
  %54 = bitcast i8* %53 to float*
  %55 = load float* %54, align 4, !tbaa !1
  %56 = fmul float %cu.1.i.i, %55
  %57 = insertelement <2 x float> undef, float %su.0.i.i, i32 0
  %58 = insertelement <2 x float> %57, float %52, i32 1
  %59 = bitcast i8* %r to <2 x float>*
  store <2 x float> %58, <2 x float>* %59, align 4
  %60 = getelementptr inbounds i8* %r, i64 8
  %61 = bitcast i8* %60 to float*
  store float %56, float* %61, align 4
  ret void
}

; Function Attrs: nounwind uwtable
define void @osl_sin_vv(i8* nocapture %r_, i8* nocapture readonly %a_) #4 {
  %1 = bitcast i8* %a_ to float*
  %2 = load float* %1, align 4, !tbaa !1
  %3 = fmul float %2, 0x3FD45F3060000000
  %4 = tail call float @copysignf(float 5.000000e-01, float %3) #12
  %5 = fadd float %3, %4
  %6 = fptosi float %5 to i32
  %7 = sitofp i32 %6 to float
  %8 = fmul float %7, -3.140625e+00
  %9 = fadd float %2, %8
  %10 = fmul float %7, 0xBF4FB40000000000
  %11 = fadd float %10, %9
  %12 = fmul float %7, 0xBE84440000000000
  %13 = fadd float %12, %11
  %14 = fmul float %7, 0xBD968C2340000000
  %15 = fadd float %14, %13
  %16 = fsub float 0x3FF921FB60000000, %15
  %17 = fsub float 0x3FF921FB60000000, %16
  %18 = fmul float %17, %17
  %19 = and i32 %6, 1
  %20 = icmp eq i32 %19, 0
  br i1 %20, label %_ZN11OpenImageIO4v1_78fast_sinEf.exit3, label %21

; <label>:21                                      ; preds = %0
  %22 = fsub float -0.000000e+00, %17
  br label %_ZN11OpenImageIO4v1_78fast_sinEf.exit3

_ZN11OpenImageIO4v1_78fast_sinEf.exit3:           ; preds = %0, %21
  %.0.i1 = phi float [ %22, %21 ], [ %17, %0 ]
  %23 = fmul float %18, 0x3EC5E150E0000000
  %24 = fadd float %23, 0xBF29F75D60000000
  %25 = fmul float %18, %24
  %26 = fadd float %25, 0x3F8110EEE0000000
  %27 = fmul float %18, %26
  %28 = fadd float %27, 0xBFC55554C0000000
  %29 = fmul float %28, %.0.i1
  %30 = fmul float %18, %29
  %31 = fadd float %.0.i1, %30
  %32 = tail call float @fabsf(float %31) #12
  %33 = fcmp ogt float %32, 1.000000e+00
  %u.0.i2 = select i1 %33, float 0.000000e+00, float %31
  %34 = bitcast i8* %r_ to float*
  store float %u.0.i2, float* %34, align 4, !tbaa !1
  %35 = getelementptr inbounds i8* %a_, i64 4
  %36 = bitcast i8* %35 to float*
  %37 = load float* %36, align 4, !tbaa !1
  %38 = fmul float %37, 0x3FD45F3060000000
  %39 = tail call float @copysignf(float 5.000000e-01, float %38) #12
  %40 = fadd float %38, %39
  %41 = fptosi float %40 to i32
  %42 = sitofp i32 %41 to float
  %43 = fmul float %42, -3.140625e+00
  %44 = fadd float %37, %43
  %45 = fmul float %42, 0xBF4FB40000000000
  %46 = fadd float %45, %44
  %47 = fmul float %42, 0xBE84440000000000
  %48 = fadd float %47, %46
  %49 = fmul float %42, 0xBD968C2340000000
  %50 = fadd float %49, %48
  %51 = fsub float 0x3FF921FB60000000, %50
  %52 = fsub float 0x3FF921FB60000000, %51
  %53 = fmul float %52, %52
  %54 = and i32 %41, 1
  %55 = icmp eq i32 %54, 0
  br i1 %55, label %_ZN11OpenImageIO4v1_78fast_sinEf.exit6, label %56

; <label>:56                                      ; preds = %_ZN11OpenImageIO4v1_78fast_sinEf.exit3
  %57 = fsub float -0.000000e+00, %52
  br label %_ZN11OpenImageIO4v1_78fast_sinEf.exit6

_ZN11OpenImageIO4v1_78fast_sinEf.exit6:           ; preds = %_ZN11OpenImageIO4v1_78fast_sinEf.exit3, %56
  %.0.i4 = phi float [ %57, %56 ], [ %52, %_ZN11OpenImageIO4v1_78fast_sinEf.exit3 ]
  %58 = fmul float %53, 0x3EC5E150E0000000
  %59 = fadd float %58, 0xBF29F75D60000000
  %60 = fmul float %53, %59
  %61 = fadd float %60, 0x3F8110EEE0000000
  %62 = fmul float %53, %61
  %63 = fadd float %62, 0xBFC55554C0000000
  %64 = fmul float %63, %.0.i4
  %65 = fmul float %53, %64
  %66 = fadd float %.0.i4, %65
  %67 = tail call float @fabsf(float %66) #12
  %68 = fcmp ogt float %67, 1.000000e+00
  %u.0.i5 = select i1 %68, float 0.000000e+00, float %66
  %69 = getelementptr inbounds i8* %r_, i64 4
  %70 = bitcast i8* %69 to float*
  store float %u.0.i5, float* %70, align 4, !tbaa !1
  %71 = getelementptr inbounds i8* %a_, i64 8
  %72 = bitcast i8* %71 to float*
  %73 = load float* %72, align 4, !tbaa !1
  %74 = fmul float %73, 0x3FD45F3060000000
  %75 = tail call float @copysignf(float 5.000000e-01, float %74) #12
  %76 = fadd float %74, %75
  %77 = fptosi float %76 to i32
  %78 = sitofp i32 %77 to float
  %79 = fmul float %78, -3.140625e+00
  %80 = fadd float %73, %79
  %81 = fmul float %78, 0xBF4FB40000000000
  %82 = fadd float %81, %80
  %83 = fmul float %78, 0xBE84440000000000
  %84 = fadd float %83, %82
  %85 = fmul float %78, 0xBD968C2340000000
  %86 = fadd float %85, %84
  %87 = fsub float 0x3FF921FB60000000, %86
  %88 = fsub float 0x3FF921FB60000000, %87
  %89 = fmul float %88, %88
  %90 = and i32 %77, 1
  %91 = icmp eq i32 %90, 0
  br i1 %91, label %_ZN11OpenImageIO4v1_78fast_sinEf.exit, label %92

; <label>:92                                      ; preds = %_ZN11OpenImageIO4v1_78fast_sinEf.exit6
  %93 = fsub float -0.000000e+00, %88
  br label %_ZN11OpenImageIO4v1_78fast_sinEf.exit

_ZN11OpenImageIO4v1_78fast_sinEf.exit:            ; preds = %_ZN11OpenImageIO4v1_78fast_sinEf.exit6, %92
  %.0.i = phi float [ %93, %92 ], [ %88, %_ZN11OpenImageIO4v1_78fast_sinEf.exit6 ]
  %94 = fmul float %89, 0x3EC5E150E0000000
  %95 = fadd float %94, 0xBF29F75D60000000
  %96 = fmul float %89, %95
  %97 = fadd float %96, 0x3F8110EEE0000000
  %98 = fmul float %89, %97
  %99 = fadd float %98, 0xBFC55554C0000000
  %100 = fmul float %99, %.0.i
  %101 = fmul float %89, %100
  %102 = fadd float %.0.i, %101
  %103 = tail call float @fabsf(float %102) #12
  %104 = fcmp ogt float %103, 1.000000e+00
  %u.0.i = select i1 %104, float 0.000000e+00, float %102
  %105 = getelementptr inbounds i8* %r_, i64 8
  %106 = bitcast i8* %105 to float*
  store float %u.0.i, float* %106, align 4, !tbaa !1
  ret void
}

; Function Attrs: nounwind uwtable
define void @osl_sin_dvdv(i8* nocapture %r_, i8* nocapture readonly %a_) #4 {
  %1 = bitcast i8* %a_ to float*
  %2 = getelementptr inbounds i8* %a_, i64 12
  %3 = bitcast i8* %2 to float*
  %4 = getelementptr inbounds i8* %a_, i64 24
  %5 = bitcast i8* %4 to float*
  %6 = load float* %1, align 4, !tbaa !1
  %7 = load float* %3, align 4, !tbaa !1
  %8 = load float* %5, align 4, !tbaa !1
  %9 = fmul float %6, 0x3FD45F3060000000
  %10 = tail call float @copysignf(float 5.000000e-01, float %9) #12
  %11 = fadd float %9, %10
  %12 = fptosi float %11 to i32
  %13 = sitofp i32 %12 to float
  %14 = fmul float %13, -3.140625e+00
  %15 = fadd float %6, %14
  %16 = fmul float %13, 0xBF4FB40000000000
  %17 = fadd float %16, %15
  %18 = fmul float %13, 0xBE84440000000000
  %19 = fadd float %18, %17
  %20 = fmul float %13, 0xBD968C2340000000
  %21 = fadd float %20, %19
  %22 = fsub float 0x3FF921FB60000000, %21
  %23 = fsub float 0x3FF921FB60000000, %22
  %24 = fmul float %23, %23
  %25 = and i32 %12, 1
  %26 = icmp ne i32 %25, 0
  br i1 %26, label %27, label %29

; <label>:27                                      ; preds = %0
  %28 = fsub float -0.000000e+00, %23
  br label %29

; <label>:29                                      ; preds = %27, %0
  %.0.i.i16 = phi float [ %28, %27 ], [ %23, %0 ]
  %30 = fmul float %24, 0x3EC5E150E0000000
  %31 = fadd float %30, 0xBF29F75D60000000
  %32 = fmul float %24, %31
  %33 = fadd float %32, 0x3F8110EEE0000000
  %34 = fmul float %24, %33
  %35 = fadd float %34, 0xBFC55554C0000000
  %36 = fmul float %35, %.0.i.i16
  %37 = fmul float %24, %36
  %38 = fadd float %.0.i.i16, %37
  %39 = fmul float %24, 0xBE923DB120000000
  %40 = fadd float %39, 0x3EFA00F160000000
  %41 = fmul float %24, %40
  %42 = fadd float %41, 0xBF56C16B00000000
  %43 = fmul float %24, %42
  %44 = fadd float %43, 0x3FA5555540000000
  %45 = fmul float %24, %44
  %46 = fadd float %45, -5.000000e-01
  %47 = fmul float %24, %46
  %48 = fadd float %47, 1.000000e+00
  br i1 %26, label %49, label %_ZN3OSL8fast_sinERKNS_5Dual2IfEE.exit20

; <label>:49                                      ; preds = %29
  %50 = fsub float -0.000000e+00, %48
  br label %_ZN3OSL8fast_sinERKNS_5Dual2IfEE.exit20

_ZN3OSL8fast_sinERKNS_5Dual2IfEE.exit20:          ; preds = %29, %49
  %cu.0.i.i17 = phi float [ %50, %49 ], [ %48, %29 ]
  %51 = tail call float @fabsf(float %38) #12
  %52 = fcmp ogt float %51, 1.000000e+00
  %su.0.i.i18 = select i1 %52, float 0.000000e+00, float %38
  %53 = tail call float @fabsf(float %cu.0.i.i17) #12
  %54 = fcmp ogt float %53, 1.000000e+00
  %cu.1.i.i19 = select i1 %54, float 0.000000e+00, float %cu.0.i.i17
  %55 = fmul float %7, %cu.1.i.i19
  %56 = fmul float %8, %cu.1.i.i19
  %57 = getelementptr inbounds i8* %a_, i64 4
  %58 = bitcast i8* %57 to float*
  %59 = getelementptr inbounds i8* %a_, i64 16
  %60 = bitcast i8* %59 to float*
  %61 = getelementptr inbounds i8* %a_, i64 28
  %62 = bitcast i8* %61 to float*
  %63 = load float* %58, align 4, !tbaa !1
  %64 = load float* %60, align 4, !tbaa !1
  %65 = load float* %62, align 4, !tbaa !1
  %66 = fmul float %63, 0x3FD45F3060000000
  %67 = tail call float @copysignf(float 5.000000e-01, float %66) #12
  %68 = fadd float %66, %67
  %69 = fptosi float %68 to i32
  %70 = sitofp i32 %69 to float
  %71 = fmul float %70, -3.140625e+00
  %72 = fadd float %63, %71
  %73 = fmul float %70, 0xBF4FB40000000000
  %74 = fadd float %73, %72
  %75 = fmul float %70, 0xBE84440000000000
  %76 = fadd float %75, %74
  %77 = fmul float %70, 0xBD968C2340000000
  %78 = fadd float %77, %76
  %79 = fsub float 0x3FF921FB60000000, %78
  %80 = fsub float 0x3FF921FB60000000, %79
  %81 = fmul float %80, %80
  %82 = and i32 %69, 1
  %83 = icmp ne i32 %82, 0
  br i1 %83, label %84, label %86

; <label>:84                                      ; preds = %_ZN3OSL8fast_sinERKNS_5Dual2IfEE.exit20
  %85 = fsub float -0.000000e+00, %80
  br label %86

; <label>:86                                      ; preds = %84, %_ZN3OSL8fast_sinERKNS_5Dual2IfEE.exit20
  %.0.i.i11 = phi float [ %85, %84 ], [ %80, %_ZN3OSL8fast_sinERKNS_5Dual2IfEE.exit20 ]
  %87 = fmul float %81, 0x3EC5E150E0000000
  %88 = fadd float %87, 0xBF29F75D60000000
  %89 = fmul float %81, %88
  %90 = fadd float %89, 0x3F8110EEE0000000
  %91 = fmul float %81, %90
  %92 = fadd float %91, 0xBFC55554C0000000
  %93 = fmul float %92, %.0.i.i11
  %94 = fmul float %81, %93
  %95 = fadd float %.0.i.i11, %94
  %96 = fmul float %81, 0xBE923DB120000000
  %97 = fadd float %96, 0x3EFA00F160000000
  %98 = fmul float %81, %97
  %99 = fadd float %98, 0xBF56C16B00000000
  %100 = fmul float %81, %99
  %101 = fadd float %100, 0x3FA5555540000000
  %102 = fmul float %81, %101
  %103 = fadd float %102, -5.000000e-01
  %104 = fmul float %81, %103
  %105 = fadd float %104, 1.000000e+00
  br i1 %83, label %106, label %_ZN3OSL8fast_sinERKNS_5Dual2IfEE.exit15

; <label>:106                                     ; preds = %86
  %107 = fsub float -0.000000e+00, %105
  br label %_ZN3OSL8fast_sinERKNS_5Dual2IfEE.exit15

_ZN3OSL8fast_sinERKNS_5Dual2IfEE.exit15:          ; preds = %86, %106
  %cu.0.i.i12 = phi float [ %107, %106 ], [ %105, %86 ]
  %108 = tail call float @fabsf(float %95) #12
  %109 = fcmp ogt float %108, 1.000000e+00
  %su.0.i.i13 = select i1 %109, float 0.000000e+00, float %95
  %110 = tail call float @fabsf(float %cu.0.i.i12) #12
  %111 = fcmp ogt float %110, 1.000000e+00
  %cu.1.i.i14 = select i1 %111, float 0.000000e+00, float %cu.0.i.i12
  %112 = fmul float %64, %cu.1.i.i14
  %113 = fmul float %65, %cu.1.i.i14
  %114 = getelementptr inbounds i8* %a_, i64 8
  %115 = bitcast i8* %114 to float*
  %116 = getelementptr inbounds i8* %a_, i64 20
  %117 = bitcast i8* %116 to float*
  %118 = getelementptr inbounds i8* %a_, i64 32
  %119 = bitcast i8* %118 to float*
  %120 = load float* %115, align 4, !tbaa !1
  %121 = load float* %117, align 4, !tbaa !1
  %122 = load float* %119, align 4, !tbaa !1
  %123 = fmul float %120, 0x3FD45F3060000000
  %124 = tail call float @copysignf(float 5.000000e-01, float %123) #12
  %125 = fadd float %123, %124
  %126 = fptosi float %125 to i32
  %127 = sitofp i32 %126 to float
  %128 = fmul float %127, -3.140625e+00
  %129 = fadd float %120, %128
  %130 = fmul float %127, 0xBF4FB40000000000
  %131 = fadd float %130, %129
  %132 = fmul float %127, 0xBE84440000000000
  %133 = fadd float %132, %131
  %134 = fmul float %127, 0xBD968C2340000000
  %135 = fadd float %134, %133
  %136 = fsub float 0x3FF921FB60000000, %135
  %137 = fsub float 0x3FF921FB60000000, %136
  %138 = fmul float %137, %137
  %139 = and i32 %126, 1
  %140 = icmp ne i32 %139, 0
  br i1 %140, label %141, label %143

; <label>:141                                     ; preds = %_ZN3OSL8fast_sinERKNS_5Dual2IfEE.exit15
  %142 = fsub float -0.000000e+00, %137
  br label %143

; <label>:143                                     ; preds = %141, %_ZN3OSL8fast_sinERKNS_5Dual2IfEE.exit15
  %.0.i.i = phi float [ %142, %141 ], [ %137, %_ZN3OSL8fast_sinERKNS_5Dual2IfEE.exit15 ]
  %144 = fmul float %138, 0x3EC5E150E0000000
  %145 = fadd float %144, 0xBF29F75D60000000
  %146 = fmul float %138, %145
  %147 = fadd float %146, 0x3F8110EEE0000000
  %148 = fmul float %138, %147
  %149 = fadd float %148, 0xBFC55554C0000000
  %150 = fmul float %149, %.0.i.i
  %151 = fmul float %138, %150
  %152 = fadd float %.0.i.i, %151
  %153 = fmul float %138, 0xBE923DB120000000
  %154 = fadd float %153, 0x3EFA00F160000000
  %155 = fmul float %138, %154
  %156 = fadd float %155, 0xBF56C16B00000000
  %157 = fmul float %138, %156
  %158 = fadd float %157, 0x3FA5555540000000
  %159 = fmul float %138, %158
  %160 = fadd float %159, -5.000000e-01
  %161 = fmul float %138, %160
  %162 = fadd float %161, 1.000000e+00
  br i1 %140, label %163, label %_ZN3OSL8fast_sinERKNS_5Dual2IfEE.exit

; <label>:163                                     ; preds = %143
  %164 = fsub float -0.000000e+00, %162
  br label %_ZN3OSL8fast_sinERKNS_5Dual2IfEE.exit

_ZN3OSL8fast_sinERKNS_5Dual2IfEE.exit:            ; preds = %143, %163
  %cu.0.i.i = phi float [ %164, %163 ], [ %162, %143 ]
  %165 = tail call float @fabsf(float %152) #12
  %166 = fcmp ogt float %165, 1.000000e+00
  %su.0.i.i = select i1 %166, float 0.000000e+00, float %152
  %167 = tail call float @fabsf(float %cu.0.i.i) #12
  %168 = fcmp ogt float %167, 1.000000e+00
  %cu.1.i.i = select i1 %168, float 0.000000e+00, float %cu.0.i.i
  %169 = fmul float %121, %cu.1.i.i
  %170 = fmul float %122, %cu.1.i.i
  %171 = bitcast i8* %r_ to float*
  store float %su.0.i.i18, float* %171, align 4, !tbaa !5
  %172 = getelementptr inbounds i8* %r_, i64 4
  %173 = bitcast i8* %172 to float*
  store float %su.0.i.i13, float* %173, align 4, !tbaa !7
  %174 = getelementptr inbounds i8* %r_, i64 8
  %175 = bitcast i8* %174 to float*
  store float %su.0.i.i, float* %175, align 4, !tbaa !8
  %176 = getelementptr inbounds i8* %r_, i64 12
  %177 = bitcast i8* %176 to float*
  store float %55, float* %177, align 4, !tbaa !5
  %178 = getelementptr inbounds i8* %r_, i64 16
  %179 = bitcast i8* %178 to float*
  store float %112, float* %179, align 4, !tbaa !7
  %180 = getelementptr inbounds i8* %r_, i64 20
  %181 = bitcast i8* %180 to float*
  store float %169, float* %181, align 4, !tbaa !8
  %182 = getelementptr inbounds i8* %r_, i64 24
  %183 = bitcast i8* %182 to float*
  store float %56, float* %183, align 4, !tbaa !5
  %184 = getelementptr inbounds i8* %r_, i64 28
  %185 = bitcast i8* %184 to float*
  store float %113, float* %185, align 4, !tbaa !7
  %186 = getelementptr inbounds i8* %r_, i64 32
  %187 = bitcast i8* %186 to float*
  store float %170, float* %187, align 4, !tbaa !8
  ret void
}

; Function Attrs: nounwind readnone uwtable
define float @osl_cos_ff(float %a) #3 {
  %1 = fmul float %a, 0x3FD45F3060000000
  %2 = tail call float @copysignf(float 5.000000e-01, float %1) #12
  %3 = fadd float %1, %2
  %4 = fptosi float %3 to i32
  %5 = sitofp i32 %4 to float
  %6 = fmul float %5, -3.140625e+00
  %7 = fadd float %6, %a
  %8 = fmul float %5, 0xBF4FB40000000000
  %9 = fadd float %8, %7
  %10 = fmul float %5, 0xBE84440000000000
  %11 = fadd float %10, %9
  %12 = fmul float %5, 0xBD968C2340000000
  %13 = fadd float %12, %11
  %14 = fsub float 0x3FF921FB60000000, %13
  %15 = fsub float 0x3FF921FB60000000, %14
  %16 = fmul float %15, %15
  %17 = fmul float %16, 0xBE923DB120000000
  %18 = fadd float %17, 0x3EFA00F160000000
  %19 = fmul float %16, %18
  %20 = fadd float %19, 0xBF56C16B00000000
  %21 = fmul float %16, %20
  %22 = fadd float %21, 0x3FA5555540000000
  %23 = fmul float %16, %22
  %24 = fadd float %23, -5.000000e-01
  %25 = fmul float %16, %24
  %26 = fadd float %25, 1.000000e+00
  %27 = and i32 %4, 1
  %28 = icmp eq i32 %27, 0
  br i1 %28, label %_ZN11OpenImageIO4v1_78fast_cosEf.exit, label %29

; <label>:29                                      ; preds = %0
  %30 = fsub float -0.000000e+00, %26
  br label %_ZN11OpenImageIO4v1_78fast_cosEf.exit

_ZN11OpenImageIO4v1_78fast_cosEf.exit:            ; preds = %0, %29
  %u.0.i = phi float [ %30, %29 ], [ %26, %0 ]
  %31 = tail call float @fabsf(float %u.0.i) #12
  %32 = fcmp ogt float %31, 1.000000e+00
  %u.1.i = select i1 %32, float 0.000000e+00, float %u.0.i
  ret float %u.1.i
}

; Function Attrs: nounwind uwtable
define void @osl_cos_dfdf(i8* nocapture %r, i8* nocapture readonly %a) #4 {
  %1 = bitcast i8* %a to float*
  %2 = load float* %1, align 4, !tbaa !1
  %3 = fmul float %2, 0x3FD45F3060000000
  %4 = tail call float @copysignf(float 5.000000e-01, float %3) #12
  %5 = fadd float %3, %4
  %6 = fptosi float %5 to i32
  %7 = sitofp i32 %6 to float
  %8 = fmul float %7, -3.140625e+00
  %9 = fadd float %2, %8
  %10 = fmul float %7, 0xBF4FB40000000000
  %11 = fadd float %10, %9
  %12 = fmul float %7, 0xBE84440000000000
  %13 = fadd float %12, %11
  %14 = fmul float %7, 0xBD968C2340000000
  %15 = fadd float %14, %13
  %16 = fsub float 0x3FF921FB60000000, %15
  %17 = fsub float 0x3FF921FB60000000, %16
  %18 = fmul float %17, %17
  %19 = and i32 %6, 1
  %20 = icmp ne i32 %19, 0
  br i1 %20, label %21, label %23

; <label>:21                                      ; preds = %0
  %22 = fsub float -0.000000e+00, %17
  br label %23

; <label>:23                                      ; preds = %21, %0
  %.0.i.i = phi float [ %22, %21 ], [ %17, %0 ]
  %24 = fmul float %18, 0x3EC5E150E0000000
  %25 = fadd float %24, 0xBF29F75D60000000
  %26 = fmul float %18, %25
  %27 = fadd float %26, 0x3F8110EEE0000000
  %28 = fmul float %18, %27
  %29 = fadd float %28, 0xBFC55554C0000000
  %30 = fmul float %29, %.0.i.i
  %31 = fmul float %18, %30
  %32 = fadd float %.0.i.i, %31
  %33 = fmul float %18, 0xBE923DB120000000
  %34 = fadd float %33, 0x3EFA00F160000000
  %35 = fmul float %18, %34
  %36 = fadd float %35, 0xBF56C16B00000000
  %37 = fmul float %18, %36
  %38 = fadd float %37, 0x3FA5555540000000
  %39 = fmul float %18, %38
  %40 = fadd float %39, -5.000000e-01
  %41 = fmul float %18, %40
  %42 = fadd float %41, 1.000000e+00
  br i1 %20, label %43, label %_ZN3OSL8fast_cosERKNS_5Dual2IfEE.exit

; <label>:43                                      ; preds = %23
  %44 = fsub float -0.000000e+00, %42
  br label %_ZN3OSL8fast_cosERKNS_5Dual2IfEE.exit

_ZN3OSL8fast_cosERKNS_5Dual2IfEE.exit:            ; preds = %23, %43
  %cu.0.i.i = phi float [ %44, %43 ], [ %42, %23 ]
  %45 = tail call float @fabsf(float %32) #12
  %46 = fcmp ogt float %45, 1.000000e+00
  %su.0.i.i = select i1 %46, float 0.000000e+00, float %32
  %47 = tail call float @fabsf(float %cu.0.i.i) #12
  %48 = fcmp ogt float %47, 1.000000e+00
  %cu.1.i.i = select i1 %48, float 0.000000e+00, float %cu.0.i.i
  %49 = getelementptr inbounds i8* %a, i64 4
  %50 = bitcast i8* %49 to float*
  %51 = load float* %50, align 4, !tbaa !1
  %52 = fmul float %su.0.i.i, %51
  %53 = fsub float -0.000000e+00, %52
  %54 = getelementptr inbounds i8* %a, i64 8
  %55 = bitcast i8* %54 to float*
  %56 = load float* %55, align 4, !tbaa !1
  %57 = fmul float %su.0.i.i, %56
  %58 = fsub float -0.000000e+00, %57
  %59 = insertelement <2 x float> undef, float %cu.1.i.i, i32 0
  %60 = insertelement <2 x float> %59, float %53, i32 1
  %61 = bitcast i8* %r to <2 x float>*
  store <2 x float> %60, <2 x float>* %61, align 4
  %62 = getelementptr inbounds i8* %r, i64 8
  %63 = bitcast i8* %62 to float*
  store float %58, float* %63, align 4
  ret void
}

; Function Attrs: nounwind uwtable
define void @osl_cos_vv(i8* nocapture %r_, i8* nocapture readonly %a_) #4 {
  %1 = bitcast i8* %a_ to float*
  %2 = load float* %1, align 4, !tbaa !1
  %3 = fmul float %2, 0x3FD45F3060000000
  %4 = tail call float @copysignf(float 5.000000e-01, float %3) #12
  %5 = fadd float %3, %4
  %6 = fptosi float %5 to i32
  %7 = sitofp i32 %6 to float
  %8 = fmul float %7, -3.140625e+00
  %9 = fadd float %2, %8
  %10 = fmul float %7, 0xBF4FB40000000000
  %11 = fadd float %10, %9
  %12 = fmul float %7, 0xBE84440000000000
  %13 = fadd float %12, %11
  %14 = fmul float %7, 0xBD968C2340000000
  %15 = fadd float %14, %13
  %16 = fsub float 0x3FF921FB60000000, %15
  %17 = fsub float 0x3FF921FB60000000, %16
  %18 = fmul float %17, %17
  %19 = fmul float %18, 0xBE923DB120000000
  %20 = fadd float %19, 0x3EFA00F160000000
  %21 = fmul float %18, %20
  %22 = fadd float %21, 0xBF56C16B00000000
  %23 = fmul float %18, %22
  %24 = fadd float %23, 0x3FA5555540000000
  %25 = fmul float %18, %24
  %26 = fadd float %25, -5.000000e-01
  %27 = fmul float %18, %26
  %28 = fadd float %27, 1.000000e+00
  %29 = and i32 %6, 1
  %30 = icmp eq i32 %29, 0
  br i1 %30, label %_ZN11OpenImageIO4v1_78fast_cosEf.exit3, label %31

; <label>:31                                      ; preds = %0
  %32 = fsub float -0.000000e+00, %28
  br label %_ZN11OpenImageIO4v1_78fast_cosEf.exit3

_ZN11OpenImageIO4v1_78fast_cosEf.exit3:           ; preds = %0, %31
  %u.0.i1 = phi float [ %32, %31 ], [ %28, %0 ]
  %33 = tail call float @fabsf(float %u.0.i1) #12
  %34 = fcmp ogt float %33, 1.000000e+00
  %u.1.i2 = select i1 %34, float 0.000000e+00, float %u.0.i1
  %35 = bitcast i8* %r_ to float*
  store float %u.1.i2, float* %35, align 4, !tbaa !1
  %36 = getelementptr inbounds i8* %a_, i64 4
  %37 = bitcast i8* %36 to float*
  %38 = load float* %37, align 4, !tbaa !1
  %39 = fmul float %38, 0x3FD45F3060000000
  %40 = tail call float @copysignf(float 5.000000e-01, float %39) #12
  %41 = fadd float %39, %40
  %42 = fptosi float %41 to i32
  %43 = sitofp i32 %42 to float
  %44 = fmul float %43, -3.140625e+00
  %45 = fadd float %38, %44
  %46 = fmul float %43, 0xBF4FB40000000000
  %47 = fadd float %46, %45
  %48 = fmul float %43, 0xBE84440000000000
  %49 = fadd float %48, %47
  %50 = fmul float %43, 0xBD968C2340000000
  %51 = fadd float %50, %49
  %52 = fsub float 0x3FF921FB60000000, %51
  %53 = fsub float 0x3FF921FB60000000, %52
  %54 = fmul float %53, %53
  %55 = fmul float %54, 0xBE923DB120000000
  %56 = fadd float %55, 0x3EFA00F160000000
  %57 = fmul float %54, %56
  %58 = fadd float %57, 0xBF56C16B00000000
  %59 = fmul float %54, %58
  %60 = fadd float %59, 0x3FA5555540000000
  %61 = fmul float %54, %60
  %62 = fadd float %61, -5.000000e-01
  %63 = fmul float %54, %62
  %64 = fadd float %63, 1.000000e+00
  %65 = and i32 %42, 1
  %66 = icmp eq i32 %65, 0
  br i1 %66, label %_ZN11OpenImageIO4v1_78fast_cosEf.exit6, label %67

; <label>:67                                      ; preds = %_ZN11OpenImageIO4v1_78fast_cosEf.exit3
  %68 = fsub float -0.000000e+00, %64
  br label %_ZN11OpenImageIO4v1_78fast_cosEf.exit6

_ZN11OpenImageIO4v1_78fast_cosEf.exit6:           ; preds = %_ZN11OpenImageIO4v1_78fast_cosEf.exit3, %67
  %u.0.i4 = phi float [ %68, %67 ], [ %64, %_ZN11OpenImageIO4v1_78fast_cosEf.exit3 ]
  %69 = tail call float @fabsf(float %u.0.i4) #12
  %70 = fcmp ogt float %69, 1.000000e+00
  %u.1.i5 = select i1 %70, float 0.000000e+00, float %u.0.i4
  %71 = getelementptr inbounds i8* %r_, i64 4
  %72 = bitcast i8* %71 to float*
  store float %u.1.i5, float* %72, align 4, !tbaa !1
  %73 = getelementptr inbounds i8* %a_, i64 8
  %74 = bitcast i8* %73 to float*
  %75 = load float* %74, align 4, !tbaa !1
  %76 = fmul float %75, 0x3FD45F3060000000
  %77 = tail call float @copysignf(float 5.000000e-01, float %76) #12
  %78 = fadd float %76, %77
  %79 = fptosi float %78 to i32
  %80 = sitofp i32 %79 to float
  %81 = fmul float %80, -3.140625e+00
  %82 = fadd float %75, %81
  %83 = fmul float %80, 0xBF4FB40000000000
  %84 = fadd float %83, %82
  %85 = fmul float %80, 0xBE84440000000000
  %86 = fadd float %85, %84
  %87 = fmul float %80, 0xBD968C2340000000
  %88 = fadd float %87, %86
  %89 = fsub float 0x3FF921FB60000000, %88
  %90 = fsub float 0x3FF921FB60000000, %89
  %91 = fmul float %90, %90
  %92 = fmul float %91, 0xBE923DB120000000
  %93 = fadd float %92, 0x3EFA00F160000000
  %94 = fmul float %91, %93
  %95 = fadd float %94, 0xBF56C16B00000000
  %96 = fmul float %91, %95
  %97 = fadd float %96, 0x3FA5555540000000
  %98 = fmul float %91, %97
  %99 = fadd float %98, -5.000000e-01
  %100 = fmul float %91, %99
  %101 = fadd float %100, 1.000000e+00
  %102 = and i32 %79, 1
  %103 = icmp eq i32 %102, 0
  br i1 %103, label %_ZN11OpenImageIO4v1_78fast_cosEf.exit, label %104

; <label>:104                                     ; preds = %_ZN11OpenImageIO4v1_78fast_cosEf.exit6
  %105 = fsub float -0.000000e+00, %101
  br label %_ZN11OpenImageIO4v1_78fast_cosEf.exit

_ZN11OpenImageIO4v1_78fast_cosEf.exit:            ; preds = %_ZN11OpenImageIO4v1_78fast_cosEf.exit6, %104
  %u.0.i = phi float [ %105, %104 ], [ %101, %_ZN11OpenImageIO4v1_78fast_cosEf.exit6 ]
  %106 = tail call float @fabsf(float %u.0.i) #12
  %107 = fcmp ogt float %106, 1.000000e+00
  %u.1.i = select i1 %107, float 0.000000e+00, float %u.0.i
  %108 = getelementptr inbounds i8* %r_, i64 8
  %109 = bitcast i8* %108 to float*
  store float %u.1.i, float* %109, align 4, !tbaa !1
  ret void
}

; Function Attrs: nounwind uwtable
define void @osl_cos_dvdv(i8* nocapture %r_, i8* nocapture readonly %a_) #4 {
  %1 = bitcast i8* %a_ to float*
  %2 = getelementptr inbounds i8* %a_, i64 12
  %3 = bitcast i8* %2 to float*
  %4 = getelementptr inbounds i8* %a_, i64 24
  %5 = bitcast i8* %4 to float*
  %6 = load float* %1, align 4, !tbaa !1
  %7 = load float* %3, align 4, !tbaa !1
  %8 = load float* %5, align 4, !tbaa !1
  %9 = fmul float %6, 0x3FD45F3060000000
  %10 = tail call float @copysignf(float 5.000000e-01, float %9) #12
  %11 = fadd float %9, %10
  %12 = fptosi float %11 to i32
  %13 = sitofp i32 %12 to float
  %14 = fmul float %13, -3.140625e+00
  %15 = fadd float %6, %14
  %16 = fmul float %13, 0xBF4FB40000000000
  %17 = fadd float %16, %15
  %18 = fmul float %13, 0xBE84440000000000
  %19 = fadd float %18, %17
  %20 = fmul float %13, 0xBD968C2340000000
  %21 = fadd float %20, %19
  %22 = fsub float 0x3FF921FB60000000, %21
  %23 = fsub float 0x3FF921FB60000000, %22
  %24 = fmul float %23, %23
  %25 = and i32 %12, 1
  %26 = icmp ne i32 %25, 0
  br i1 %26, label %27, label %29

; <label>:27                                      ; preds = %0
  %28 = fsub float -0.000000e+00, %23
  br label %29

; <label>:29                                      ; preds = %27, %0
  %.0.i.i16 = phi float [ %28, %27 ], [ %23, %0 ]
  %30 = fmul float %24, 0x3EC5E150E0000000
  %31 = fadd float %30, 0xBF29F75D60000000
  %32 = fmul float %24, %31
  %33 = fadd float %32, 0x3F8110EEE0000000
  %34 = fmul float %24, %33
  %35 = fadd float %34, 0xBFC55554C0000000
  %36 = fmul float %35, %.0.i.i16
  %37 = fmul float %24, %36
  %38 = fadd float %.0.i.i16, %37
  %39 = fmul float %24, 0xBE923DB120000000
  %40 = fadd float %39, 0x3EFA00F160000000
  %41 = fmul float %24, %40
  %42 = fadd float %41, 0xBF56C16B00000000
  %43 = fmul float %24, %42
  %44 = fadd float %43, 0x3FA5555540000000
  %45 = fmul float %24, %44
  %46 = fadd float %45, -5.000000e-01
  %47 = fmul float %24, %46
  %48 = fadd float %47, 1.000000e+00
  br i1 %26, label %49, label %_ZN3OSL8fast_cosERKNS_5Dual2IfEE.exit20

; <label>:49                                      ; preds = %29
  %50 = fsub float -0.000000e+00, %48
  br label %_ZN3OSL8fast_cosERKNS_5Dual2IfEE.exit20

_ZN3OSL8fast_cosERKNS_5Dual2IfEE.exit20:          ; preds = %29, %49
  %cu.0.i.i17 = phi float [ %50, %49 ], [ %48, %29 ]
  %51 = tail call float @fabsf(float %38) #12
  %52 = fcmp ogt float %51, 1.000000e+00
  %su.0.i.i18 = select i1 %52, float 0.000000e+00, float %38
  %53 = tail call float @fabsf(float %cu.0.i.i17) #12
  %54 = fcmp ogt float %53, 1.000000e+00
  %cu.1.i.i19 = select i1 %54, float 0.000000e+00, float %cu.0.i.i17
  %55 = fmul float %7, %su.0.i.i18
  %56 = fsub float -0.000000e+00, %55
  %57 = fmul float %8, %su.0.i.i18
  %58 = fsub float -0.000000e+00, %57
  %59 = getelementptr inbounds i8* %a_, i64 4
  %60 = bitcast i8* %59 to float*
  %61 = getelementptr inbounds i8* %a_, i64 16
  %62 = bitcast i8* %61 to float*
  %63 = getelementptr inbounds i8* %a_, i64 28
  %64 = bitcast i8* %63 to float*
  %65 = load float* %60, align 4, !tbaa !1
  %66 = load float* %62, align 4, !tbaa !1
  %67 = load float* %64, align 4, !tbaa !1
  %68 = fmul float %65, 0x3FD45F3060000000
  %69 = tail call float @copysignf(float 5.000000e-01, float %68) #12
  %70 = fadd float %68, %69
  %71 = fptosi float %70 to i32
  %72 = sitofp i32 %71 to float
  %73 = fmul float %72, -3.140625e+00
  %74 = fadd float %65, %73
  %75 = fmul float %72, 0xBF4FB40000000000
  %76 = fadd float %75, %74
  %77 = fmul float %72, 0xBE84440000000000
  %78 = fadd float %77, %76
  %79 = fmul float %72, 0xBD968C2340000000
  %80 = fadd float %79, %78
  %81 = fsub float 0x3FF921FB60000000, %80
  %82 = fsub float 0x3FF921FB60000000, %81
  %83 = fmul float %82, %82
  %84 = and i32 %71, 1
  %85 = icmp ne i32 %84, 0
  br i1 %85, label %86, label %88

; <label>:86                                      ; preds = %_ZN3OSL8fast_cosERKNS_5Dual2IfEE.exit20
  %87 = fsub float -0.000000e+00, %82
  br label %88

; <label>:88                                      ; preds = %86, %_ZN3OSL8fast_cosERKNS_5Dual2IfEE.exit20
  %.0.i.i11 = phi float [ %87, %86 ], [ %82, %_ZN3OSL8fast_cosERKNS_5Dual2IfEE.exit20 ]
  %89 = fmul float %83, 0x3EC5E150E0000000
  %90 = fadd float %89, 0xBF29F75D60000000
  %91 = fmul float %83, %90
  %92 = fadd float %91, 0x3F8110EEE0000000
  %93 = fmul float %83, %92
  %94 = fadd float %93, 0xBFC55554C0000000
  %95 = fmul float %94, %.0.i.i11
  %96 = fmul float %83, %95
  %97 = fadd float %.0.i.i11, %96
  %98 = fmul float %83, 0xBE923DB120000000
  %99 = fadd float %98, 0x3EFA00F160000000
  %100 = fmul float %83, %99
  %101 = fadd float %100, 0xBF56C16B00000000
  %102 = fmul float %83, %101
  %103 = fadd float %102, 0x3FA5555540000000
  %104 = fmul float %83, %103
  %105 = fadd float %104, -5.000000e-01
  %106 = fmul float %83, %105
  %107 = fadd float %106, 1.000000e+00
  br i1 %85, label %108, label %_ZN3OSL8fast_cosERKNS_5Dual2IfEE.exit15

; <label>:108                                     ; preds = %88
  %109 = fsub float -0.000000e+00, %107
  br label %_ZN3OSL8fast_cosERKNS_5Dual2IfEE.exit15

_ZN3OSL8fast_cosERKNS_5Dual2IfEE.exit15:          ; preds = %88, %108
  %cu.0.i.i12 = phi float [ %109, %108 ], [ %107, %88 ]
  %110 = tail call float @fabsf(float %97) #12
  %111 = fcmp ogt float %110, 1.000000e+00
  %su.0.i.i13 = select i1 %111, float 0.000000e+00, float %97
  %112 = tail call float @fabsf(float %cu.0.i.i12) #12
  %113 = fcmp ogt float %112, 1.000000e+00
  %cu.1.i.i14 = select i1 %113, float 0.000000e+00, float %cu.0.i.i12
  %114 = fmul float %66, %su.0.i.i13
  %115 = fsub float -0.000000e+00, %114
  %116 = fmul float %67, %su.0.i.i13
  %117 = fsub float -0.000000e+00, %116
  %118 = getelementptr inbounds i8* %a_, i64 8
  %119 = bitcast i8* %118 to float*
  %120 = getelementptr inbounds i8* %a_, i64 20
  %121 = bitcast i8* %120 to float*
  %122 = getelementptr inbounds i8* %a_, i64 32
  %123 = bitcast i8* %122 to float*
  %124 = load float* %119, align 4, !tbaa !1
  %125 = load float* %121, align 4, !tbaa !1
  %126 = load float* %123, align 4, !tbaa !1
  %127 = fmul float %124, 0x3FD45F3060000000
  %128 = tail call float @copysignf(float 5.000000e-01, float %127) #12
  %129 = fadd float %127, %128
  %130 = fptosi float %129 to i32
  %131 = sitofp i32 %130 to float
  %132 = fmul float %131, -3.140625e+00
  %133 = fadd float %124, %132
  %134 = fmul float %131, 0xBF4FB40000000000
  %135 = fadd float %134, %133
  %136 = fmul float %131, 0xBE84440000000000
  %137 = fadd float %136, %135
  %138 = fmul float %131, 0xBD968C2340000000
  %139 = fadd float %138, %137
  %140 = fsub float 0x3FF921FB60000000, %139
  %141 = fsub float 0x3FF921FB60000000, %140
  %142 = fmul float %141, %141
  %143 = and i32 %130, 1
  %144 = icmp ne i32 %143, 0
  br i1 %144, label %145, label %147

; <label>:145                                     ; preds = %_ZN3OSL8fast_cosERKNS_5Dual2IfEE.exit15
  %146 = fsub float -0.000000e+00, %141
  br label %147

; <label>:147                                     ; preds = %145, %_ZN3OSL8fast_cosERKNS_5Dual2IfEE.exit15
  %.0.i.i = phi float [ %146, %145 ], [ %141, %_ZN3OSL8fast_cosERKNS_5Dual2IfEE.exit15 ]
  %148 = fmul float %142, 0x3EC5E150E0000000
  %149 = fadd float %148, 0xBF29F75D60000000
  %150 = fmul float %142, %149
  %151 = fadd float %150, 0x3F8110EEE0000000
  %152 = fmul float %142, %151
  %153 = fadd float %152, 0xBFC55554C0000000
  %154 = fmul float %153, %.0.i.i
  %155 = fmul float %142, %154
  %156 = fadd float %.0.i.i, %155
  %157 = fmul float %142, 0xBE923DB120000000
  %158 = fadd float %157, 0x3EFA00F160000000
  %159 = fmul float %142, %158
  %160 = fadd float %159, 0xBF56C16B00000000
  %161 = fmul float %142, %160
  %162 = fadd float %161, 0x3FA5555540000000
  %163 = fmul float %142, %162
  %164 = fadd float %163, -5.000000e-01
  %165 = fmul float %142, %164
  %166 = fadd float %165, 1.000000e+00
  br i1 %144, label %167, label %_ZN3OSL8fast_cosERKNS_5Dual2IfEE.exit

; <label>:167                                     ; preds = %147
  %168 = fsub float -0.000000e+00, %166
  br label %_ZN3OSL8fast_cosERKNS_5Dual2IfEE.exit

_ZN3OSL8fast_cosERKNS_5Dual2IfEE.exit:            ; preds = %147, %167
  %cu.0.i.i = phi float [ %168, %167 ], [ %166, %147 ]
  %169 = tail call float @fabsf(float %156) #12
  %170 = fcmp ogt float %169, 1.000000e+00
  %su.0.i.i = select i1 %170, float 0.000000e+00, float %156
  %171 = tail call float @fabsf(float %cu.0.i.i) #12
  %172 = fcmp ogt float %171, 1.000000e+00
  %cu.1.i.i = select i1 %172, float 0.000000e+00, float %cu.0.i.i
  %173 = fmul float %125, %su.0.i.i
  %174 = fsub float -0.000000e+00, %173
  %175 = fmul float %126, %su.0.i.i
  %176 = fsub float -0.000000e+00, %175
  %177 = bitcast i8* %r_ to float*
  store float %cu.1.i.i19, float* %177, align 4, !tbaa !5
  %178 = getelementptr inbounds i8* %r_, i64 4
  %179 = bitcast i8* %178 to float*
  store float %cu.1.i.i14, float* %179, align 4, !tbaa !7
  %180 = getelementptr inbounds i8* %r_, i64 8
  %181 = bitcast i8* %180 to float*
  store float %cu.1.i.i, float* %181, align 4, !tbaa !8
  %182 = getelementptr inbounds i8* %r_, i64 12
  %183 = bitcast i8* %182 to float*
  store float %56, float* %183, align 4, !tbaa !5
  %184 = getelementptr inbounds i8* %r_, i64 16
  %185 = bitcast i8* %184 to float*
  store float %115, float* %185, align 4, !tbaa !7
  %186 = getelementptr inbounds i8* %r_, i64 20
  %187 = bitcast i8* %186 to float*
  store float %174, float* %187, align 4, !tbaa !8
  %188 = getelementptr inbounds i8* %r_, i64 24
  %189 = bitcast i8* %188 to float*
  store float %58, float* %189, align 4, !tbaa !5
  %190 = getelementptr inbounds i8* %r_, i64 28
  %191 = bitcast i8* %190 to float*
  store float %117, float* %191, align 4, !tbaa !7
  %192 = getelementptr inbounds i8* %r_, i64 32
  %193 = bitcast i8* %192 to float*
  store float %176, float* %193, align 4, !tbaa !8
  ret void
}

; Function Attrs: nounwind readnone uwtable
define float @osl_tan_ff(float %a) #3 {
  %1 = fmul float %a, 0x3FE45F3060000000
  %2 = tail call float @copysignf(float 5.000000e-01, float %1) #12
  %3 = fadd float %1, %2
  %4 = fptosi float %3 to i32
  %5 = sitofp i32 %4 to float
  %6 = fmul float %5, 0xBFF9200000000000
  %7 = fadd float %6, %a
  %8 = fmul float %5, 0xBF3FB40000000000
  %9 = fadd float %8, %7
  %10 = fmul float %5, 0xBE74440000000000
  %11 = fadd float %10, %9
  %12 = fmul float %5, 0xBD868C2340000000
  %13 = fadd float %12, %11
  %14 = and i32 %4, 1
  %15 = icmp eq i32 %14, 0
  br i1 %15, label %16, label %19

; <label>:16                                      ; preds = %0
  %17 = fsub float 0x3FE921FB60000000, %13
  %18 = fsub float 0x3FE921FB60000000, %17
  br label %19

; <label>:19                                      ; preds = %16, %0
  %.0.i = phi float [ %18, %16 ], [ %13, %0 ]
  %20 = fmul float %.0.i, %.0.i
  %21 = fmul float %20, 0x3F82FD7040000000
  %22 = fadd float %21, 0x3F6B323AE0000000
  %23 = fmul float %20, %22
  %24 = fadd float %23, 0x3F98E20C80000000
  %25 = fmul float %20, %24
  %26 = fadd float %25, 0x3FAB5DBCA0000000
  %27 = fmul float %20, %26
  %28 = fadd float %27, 0x3FC112B1C0000000
  %29 = fmul float %20, %28
  %30 = fadd float %29, 0x3FD5554F20000000
  %31 = fmul float %.0.i, %30
  %32 = fmul float %20, %31
  %33 = fadd float %.0.i, %32
  br i1 %15, label %_ZN11OpenImageIO4v1_78fast_tanEf.exit, label %34

; <label>:34                                      ; preds = %19
  %35 = fdiv float -1.000000e+00, %33
  br label %_ZN11OpenImageIO4v1_78fast_tanEf.exit

_ZN11OpenImageIO4v1_78fast_tanEf.exit:            ; preds = %19, %34
  %u.0.i = phi float [ %35, %34 ], [ %33, %19 ]
  ret float %u.0.i
}

; Function Attrs: nounwind uwtable
define void @osl_tan_dfdf(i8* nocapture %r, i8* nocapture readonly %a) #4 {
  %1 = bitcast i8* %a to %"class.OSL::Dual2"*
  %2 = tail call { <2 x float>, float } @_ZN3OSL8fast_tanERKNS_5Dual2IfEE(%"class.OSL::Dual2"* dereferenceable(12) %1)
  %3 = extractvalue { <2 x float>, float } %2, 0
  %4 = extractvalue { <2 x float>, float } %2, 1
  %5 = bitcast i8* %r to <2 x float>*
  store <2 x float> %3, <2 x float>* %5, align 4
  %6 = getelementptr inbounds i8* %r, i64 8
  %7 = bitcast i8* %6 to float*
  store float %4, float* %7, align 4
  ret void
}

; Function Attrs: inlinehint nounwind readonly uwtable
define linkonce_odr { <2 x float>, float } @_ZN3OSL8fast_tanERKNS_5Dual2IfEE(%"class.OSL::Dual2"* nocapture readonly dereferenceable(12) %a) #5 {
  %1 = getelementptr inbounds %"class.OSL::Dual2"* %a, i64 0, i32 0
  %2 = load float* %1, align 4, !tbaa !1
  %3 = fmul float %2, 0x3FE45F3060000000
  %4 = tail call float @copysignf(float 5.000000e-01, float %3) #12
  %5 = fadd float %3, %4
  %6 = fptosi float %5 to i32
  %7 = sitofp i32 %6 to float
  %8 = fmul float %7, 0xBFF9200000000000
  %9 = fadd float %2, %8
  %10 = fmul float %7, 0xBF3FB40000000000
  %11 = fadd float %10, %9
  %12 = fmul float %7, 0xBE74440000000000
  %13 = fadd float %12, %11
  %14 = fmul float %7, 0xBD868C2340000000
  %15 = fadd float %14, %13
  %16 = and i32 %6, 1
  %17 = icmp eq i32 %16, 0
  br i1 %17, label %18, label %21

; <label>:18                                      ; preds = %0
  %19 = fsub float 0x3FE921FB60000000, %15
  %20 = fsub float 0x3FE921FB60000000, %19
  br label %21

; <label>:21                                      ; preds = %18, %0
  %.0.i = phi float [ %20, %18 ], [ %15, %0 ]
  %22 = fmul float %.0.i, %.0.i
  %23 = fmul float %22, 0x3F82FD7040000000
  %24 = fadd float %23, 0x3F6B323AE0000000
  %25 = fmul float %22, %24
  %26 = fadd float %25, 0x3F98E20C80000000
  %27 = fmul float %22, %26
  %28 = fadd float %27, 0x3FAB5DBCA0000000
  %29 = fmul float %22, %28
  %30 = fadd float %29, 0x3FC112B1C0000000
  %31 = fmul float %22, %30
  %32 = fadd float %31, 0x3FD5554F20000000
  %33 = fmul float %.0.i, %32
  %34 = fmul float %22, %33
  %35 = fadd float %.0.i, %34
  br i1 %17, label %_ZN11OpenImageIO4v1_78fast_tanEf.exit, label %36

; <label>:36                                      ; preds = %21
  %37 = fdiv float -1.000000e+00, %35
  br label %_ZN11OpenImageIO4v1_78fast_tanEf.exit

_ZN11OpenImageIO4v1_78fast_tanEf.exit:            ; preds = %21, %36
  %u.0.i1 = phi float [ %37, %36 ], [ %35, %21 ]
  %38 = fmul float %2, 0x3FD45F3060000000
  %39 = tail call float @copysignf(float 5.000000e-01, float %38) #12
  %40 = fadd float %38, %39
  %41 = fptosi float %40 to i32
  %42 = sitofp i32 %41 to float
  %43 = fmul float %42, -3.140625e+00
  %44 = fadd float %2, %43
  %45 = fmul float %42, 0xBF4FB40000000000
  %46 = fadd float %45, %44
  %47 = fmul float %42, 0xBE84440000000000
  %48 = fadd float %47, %46
  %49 = fmul float %42, 0xBD968C2340000000
  %50 = fadd float %49, %48
  %51 = fsub float 0x3FF921FB60000000, %50
  %52 = fsub float 0x3FF921FB60000000, %51
  %53 = fmul float %52, %52
  %54 = fmul float %53, 0xBE923DB120000000
  %55 = fadd float %54, 0x3EFA00F160000000
  %56 = fmul float %53, %55
  %57 = fadd float %56, 0xBF56C16B00000000
  %58 = fmul float %53, %57
  %59 = fadd float %58, 0x3FA5555540000000
  %60 = fmul float %53, %59
  %61 = fadd float %60, -5.000000e-01
  %62 = fmul float %53, %61
  %63 = fadd float %62, 1.000000e+00
  %64 = and i32 %41, 1
  %65 = icmp eq i32 %64, 0
  br i1 %65, label %_ZN11OpenImageIO4v1_78fast_cosEf.exit, label %66

; <label>:66                                      ; preds = %_ZN11OpenImageIO4v1_78fast_tanEf.exit
  %67 = fsub float -0.000000e+00, %63
  br label %_ZN11OpenImageIO4v1_78fast_cosEf.exit

_ZN11OpenImageIO4v1_78fast_cosEf.exit:            ; preds = %_ZN11OpenImageIO4v1_78fast_tanEf.exit, %66
  %u.0.i = phi float [ %67, %66 ], [ %63, %_ZN11OpenImageIO4v1_78fast_tanEf.exit ]
  %68 = tail call float @fabsf(float %u.0.i) #12
  %69 = fcmp ogt float %68, 1.000000e+00
  %u.1.i = select i1 %69, float 0.000000e+00, float %u.0.i
  %70 = fmul float %u.1.i, %u.1.i
  %71 = fdiv float 1.000000e+00, %70
  %72 = getelementptr inbounds %"class.OSL::Dual2"* %a, i64 0, i32 1
  %73 = load float* %72, align 4, !tbaa !1
  %74 = fmul float %71, %73
  %75 = getelementptr inbounds %"class.OSL::Dual2"* %a, i64 0, i32 2
  %76 = load float* %75, align 4, !tbaa !1
  %77 = fmul float %71, %76
  %78 = insertelement <2 x float> undef, float %u.0.i1, i32 0
  %79 = insertelement <2 x float> %78, float %74, i32 1
  %80 = insertvalue { <2 x float>, float } undef, <2 x float> %79, 0
  %81 = insertvalue { <2 x float>, float } %80, float %77, 1
  ret { <2 x float>, float } %81
}

; Function Attrs: nounwind uwtable
define void @osl_tan_vv(i8* nocapture %r_, i8* nocapture readonly %a_) #4 {
  %1 = bitcast i8* %a_ to float*
  %2 = load float* %1, align 4, !tbaa !1
  %3 = fmul float %2, 0x3FE45F3060000000
  %4 = tail call float @copysignf(float 5.000000e-01, float %3) #12
  %5 = fadd float %3, %4
  %6 = fptosi float %5 to i32
  %7 = sitofp i32 %6 to float
  %8 = fmul float %7, 0xBFF9200000000000
  %9 = fadd float %2, %8
  %10 = fmul float %7, 0xBF3FB40000000000
  %11 = fadd float %10, %9
  %12 = fmul float %7, 0xBE74440000000000
  %13 = fadd float %12, %11
  %14 = fmul float %7, 0xBD868C2340000000
  %15 = fadd float %14, %13
  %16 = and i32 %6, 1
  %17 = icmp eq i32 %16, 0
  br i1 %17, label %18, label %21

; <label>:18                                      ; preds = %0
  %19 = fsub float 0x3FE921FB60000000, %15
  %20 = fsub float 0x3FE921FB60000000, %19
  br label %21

; <label>:21                                      ; preds = %18, %0
  %.0.i1 = phi float [ %20, %18 ], [ %15, %0 ]
  %22 = fmul float %.0.i1, %.0.i1
  %23 = fmul float %22, 0x3F82FD7040000000
  %24 = fadd float %23, 0x3F6B323AE0000000
  %25 = fmul float %22, %24
  %26 = fadd float %25, 0x3F98E20C80000000
  %27 = fmul float %22, %26
  %28 = fadd float %27, 0x3FAB5DBCA0000000
  %29 = fmul float %22, %28
  %30 = fadd float %29, 0x3FC112B1C0000000
  %31 = fmul float %22, %30
  %32 = fadd float %31, 0x3FD5554F20000000
  %33 = fmul float %.0.i1, %32
  %34 = fmul float %22, %33
  %35 = fadd float %.0.i1, %34
  br i1 %17, label %_ZN11OpenImageIO4v1_78fast_tanEf.exit3, label %36

; <label>:36                                      ; preds = %21
  %37 = fdiv float -1.000000e+00, %35
  br label %_ZN11OpenImageIO4v1_78fast_tanEf.exit3

_ZN11OpenImageIO4v1_78fast_tanEf.exit3:           ; preds = %21, %36
  %u.0.i2 = phi float [ %37, %36 ], [ %35, %21 ]
  %38 = bitcast i8* %r_ to float*
  store float %u.0.i2, float* %38, align 4, !tbaa !1
  %39 = getelementptr inbounds i8* %a_, i64 4
  %40 = bitcast i8* %39 to float*
  %41 = load float* %40, align 4, !tbaa !1
  %42 = fmul float %41, 0x3FE45F3060000000
  %43 = tail call float @copysignf(float 5.000000e-01, float %42) #12
  %44 = fadd float %42, %43
  %45 = fptosi float %44 to i32
  %46 = sitofp i32 %45 to float
  %47 = fmul float %46, 0xBFF9200000000000
  %48 = fadd float %41, %47
  %49 = fmul float %46, 0xBF3FB40000000000
  %50 = fadd float %49, %48
  %51 = fmul float %46, 0xBE74440000000000
  %52 = fadd float %51, %50
  %53 = fmul float %46, 0xBD868C2340000000
  %54 = fadd float %53, %52
  %55 = and i32 %45, 1
  %56 = icmp eq i32 %55, 0
  br i1 %56, label %57, label %60

; <label>:57                                      ; preds = %_ZN11OpenImageIO4v1_78fast_tanEf.exit3
  %58 = fsub float 0x3FE921FB60000000, %54
  %59 = fsub float 0x3FE921FB60000000, %58
  br label %60

; <label>:60                                      ; preds = %57, %_ZN11OpenImageIO4v1_78fast_tanEf.exit3
  %.0.i4 = phi float [ %59, %57 ], [ %54, %_ZN11OpenImageIO4v1_78fast_tanEf.exit3 ]
  %61 = fmul float %.0.i4, %.0.i4
  %62 = fmul float %61, 0x3F82FD7040000000
  %63 = fadd float %62, 0x3F6B323AE0000000
  %64 = fmul float %61, %63
  %65 = fadd float %64, 0x3F98E20C80000000
  %66 = fmul float %61, %65
  %67 = fadd float %66, 0x3FAB5DBCA0000000
  %68 = fmul float %61, %67
  %69 = fadd float %68, 0x3FC112B1C0000000
  %70 = fmul float %61, %69
  %71 = fadd float %70, 0x3FD5554F20000000
  %72 = fmul float %.0.i4, %71
  %73 = fmul float %61, %72
  %74 = fadd float %.0.i4, %73
  br i1 %56, label %_ZN11OpenImageIO4v1_78fast_tanEf.exit6, label %75

; <label>:75                                      ; preds = %60
  %76 = fdiv float -1.000000e+00, %74
  br label %_ZN11OpenImageIO4v1_78fast_tanEf.exit6

_ZN11OpenImageIO4v1_78fast_tanEf.exit6:           ; preds = %60, %75
  %u.0.i5 = phi float [ %76, %75 ], [ %74, %60 ]
  %77 = getelementptr inbounds i8* %r_, i64 4
  %78 = bitcast i8* %77 to float*
  store float %u.0.i5, float* %78, align 4, !tbaa !1
  %79 = getelementptr inbounds i8* %a_, i64 8
  %80 = bitcast i8* %79 to float*
  %81 = load float* %80, align 4, !tbaa !1
  %82 = fmul float %81, 0x3FE45F3060000000
  %83 = tail call float @copysignf(float 5.000000e-01, float %82) #12
  %84 = fadd float %82, %83
  %85 = fptosi float %84 to i32
  %86 = sitofp i32 %85 to float
  %87 = fmul float %86, 0xBFF9200000000000
  %88 = fadd float %81, %87
  %89 = fmul float %86, 0xBF3FB40000000000
  %90 = fadd float %89, %88
  %91 = fmul float %86, 0xBE74440000000000
  %92 = fadd float %91, %90
  %93 = fmul float %86, 0xBD868C2340000000
  %94 = fadd float %93, %92
  %95 = and i32 %85, 1
  %96 = icmp eq i32 %95, 0
  br i1 %96, label %97, label %100

; <label>:97                                      ; preds = %_ZN11OpenImageIO4v1_78fast_tanEf.exit6
  %98 = fsub float 0x3FE921FB60000000, %94
  %99 = fsub float 0x3FE921FB60000000, %98
  br label %100

; <label>:100                                     ; preds = %97, %_ZN11OpenImageIO4v1_78fast_tanEf.exit6
  %.0.i = phi float [ %99, %97 ], [ %94, %_ZN11OpenImageIO4v1_78fast_tanEf.exit6 ]
  %101 = fmul float %.0.i, %.0.i
  %102 = fmul float %101, 0x3F82FD7040000000
  %103 = fadd float %102, 0x3F6B323AE0000000
  %104 = fmul float %101, %103
  %105 = fadd float %104, 0x3F98E20C80000000
  %106 = fmul float %101, %105
  %107 = fadd float %106, 0x3FAB5DBCA0000000
  %108 = fmul float %101, %107
  %109 = fadd float %108, 0x3FC112B1C0000000
  %110 = fmul float %101, %109
  %111 = fadd float %110, 0x3FD5554F20000000
  %112 = fmul float %.0.i, %111
  %113 = fmul float %101, %112
  %114 = fadd float %.0.i, %113
  br i1 %96, label %_ZN11OpenImageIO4v1_78fast_tanEf.exit, label %115

; <label>:115                                     ; preds = %100
  %116 = fdiv float -1.000000e+00, %114
  br label %_ZN11OpenImageIO4v1_78fast_tanEf.exit

_ZN11OpenImageIO4v1_78fast_tanEf.exit:            ; preds = %100, %115
  %u.0.i = phi float [ %116, %115 ], [ %114, %100 ]
  %117 = getelementptr inbounds i8* %r_, i64 8
  %118 = bitcast i8* %117 to float*
  store float %u.0.i, float* %118, align 4, !tbaa !1
  ret void
}

; Function Attrs: nounwind uwtable
define void @osl_tan_dvdv(i8* nocapture %r_, i8* nocapture readonly %a_) #4 {
  %1 = alloca %"class.OSL::Dual2", align 4
  %2 = alloca %"class.OSL::Dual2", align 4
  %3 = alloca %"class.OSL::Dual2", align 4
  %4 = bitcast i8* %a_ to float*
  %5 = getelementptr inbounds i8* %a_, i64 12
  %6 = bitcast i8* %5 to float*
  %7 = getelementptr inbounds i8* %a_, i64 24
  %8 = bitcast i8* %7 to float*
  %9 = getelementptr inbounds %"class.OSL::Dual2"* %1, i64 0, i32 0
  %10 = load float* %4, align 4, !tbaa !1
  store float %10, float* %9, align 4, !tbaa !9
  %11 = getelementptr inbounds %"class.OSL::Dual2"* %1, i64 0, i32 1
  %12 = load float* %6, align 4, !tbaa !1
  store float %12, float* %11, align 4, !tbaa !11
  %13 = getelementptr inbounds %"class.OSL::Dual2"* %1, i64 0, i32 2
  %14 = load float* %8, align 4, !tbaa !1
  store float %14, float* %13, align 4, !tbaa !12
  %15 = call { <2 x float>, float } @_ZN3OSL8fast_tanERKNS_5Dual2IfEE(%"class.OSL::Dual2"* dereferenceable(12) %1)
  %16 = extractvalue { <2 x float>, float } %15, 0
  %17 = extractvalue { <2 x float>, float } %15, 1
  %18 = getelementptr inbounds i8* %a_, i64 4
  %19 = bitcast i8* %18 to float*
  %20 = getelementptr inbounds i8* %a_, i64 16
  %21 = bitcast i8* %20 to float*
  %22 = getelementptr inbounds i8* %a_, i64 28
  %23 = bitcast i8* %22 to float*
  %24 = getelementptr inbounds %"class.OSL::Dual2"* %2, i64 0, i32 0
  %25 = load float* %19, align 4, !tbaa !1
  store float %25, float* %24, align 4, !tbaa !9
  %26 = getelementptr inbounds %"class.OSL::Dual2"* %2, i64 0, i32 1
  %27 = load float* %21, align 4, !tbaa !1
  store float %27, float* %26, align 4, !tbaa !11
  %28 = getelementptr inbounds %"class.OSL::Dual2"* %2, i64 0, i32 2
  %29 = load float* %23, align 4, !tbaa !1
  store float %29, float* %28, align 4, !tbaa !12
  %30 = call { <2 x float>, float } @_ZN3OSL8fast_tanERKNS_5Dual2IfEE(%"class.OSL::Dual2"* dereferenceable(12) %2)
  %31 = extractvalue { <2 x float>, float } %30, 0
  %32 = extractvalue { <2 x float>, float } %30, 1
  %33 = getelementptr inbounds i8* %a_, i64 8
  %34 = bitcast i8* %33 to float*
  %35 = getelementptr inbounds i8* %a_, i64 20
  %36 = bitcast i8* %35 to float*
  %37 = getelementptr inbounds i8* %a_, i64 32
  %38 = bitcast i8* %37 to float*
  %39 = getelementptr inbounds %"class.OSL::Dual2"* %3, i64 0, i32 0
  %40 = load float* %34, align 4, !tbaa !1
  store float %40, float* %39, align 4, !tbaa !9
  %41 = getelementptr inbounds %"class.OSL::Dual2"* %3, i64 0, i32 1
  %42 = load float* %36, align 4, !tbaa !1
  store float %42, float* %41, align 4, !tbaa !11
  %43 = getelementptr inbounds %"class.OSL::Dual2"* %3, i64 0, i32 2
  %44 = load float* %38, align 4, !tbaa !1
  store float %44, float* %43, align 4, !tbaa !12
  %45 = call { <2 x float>, float } @_ZN3OSL8fast_tanERKNS_5Dual2IfEE(%"class.OSL::Dual2"* dereferenceable(12) %3)
  %46 = extractvalue { <2 x float>, float } %45, 0
  %47 = extractvalue { <2 x float>, float } %45, 1
  %48 = extractelement <2 x float> %16, i32 0
  %49 = extractelement <2 x float> %31, i32 0
  %50 = extractelement <2 x float> %46, i32 0
  %51 = extractelement <2 x float> %16, i32 1
  %52 = extractelement <2 x float> %31, i32 1
  %53 = extractelement <2 x float> %46, i32 1
  %54 = bitcast i8* %r_ to float*
  store float %48, float* %54, align 4, !tbaa !5
  %55 = getelementptr inbounds i8* %r_, i64 4
  %56 = bitcast i8* %55 to float*
  store float %49, float* %56, align 4, !tbaa !7
  %57 = getelementptr inbounds i8* %r_, i64 8
  %58 = bitcast i8* %57 to float*
  store float %50, float* %58, align 4, !tbaa !8
  %59 = getelementptr inbounds i8* %r_, i64 12
  %60 = bitcast i8* %59 to float*
  store float %51, float* %60, align 4, !tbaa !5
  %61 = getelementptr inbounds i8* %r_, i64 16
  %62 = bitcast i8* %61 to float*
  store float %52, float* %62, align 4, !tbaa !7
  %63 = getelementptr inbounds i8* %r_, i64 20
  %64 = bitcast i8* %63 to float*
  store float %53, float* %64, align 4, !tbaa !8
  %65 = getelementptr inbounds i8* %r_, i64 24
  %66 = bitcast i8* %65 to float*
  store float %17, float* %66, align 4, !tbaa !5
  %67 = getelementptr inbounds i8* %r_, i64 28
  %68 = bitcast i8* %67 to float*
  store float %32, float* %68, align 4, !tbaa !7
  %69 = getelementptr inbounds i8* %r_, i64 32
  %70 = bitcast i8* %69 to float*
  store float %47, float* %70, align 4, !tbaa !8
  ret void
}

; Function Attrs: nounwind readnone uwtable
define float @osl_asin_ff(float %a) #3 {
  %1 = tail call float @fabsf(float %a) #12
  %2 = fcmp olt float %1, 1.000000e+00
  br i1 %2, label %3, label %_ZN11OpenImageIO4v1_79fast_asinEf.exit

; <label>:3                                       ; preds = %0
  %4 = fsub float 1.000000e+00, %1
  %5 = fsub float 1.000000e+00, %4
  br label %_ZN11OpenImageIO4v1_79fast_asinEf.exit

_ZN11OpenImageIO4v1_79fast_asinEf.exit:           ; preds = %0, %3
  %6 = phi float [ %5, %3 ], [ 1.000000e+00, %0 ]
  %7 = fsub float 1.000000e+00, %6
  %8 = tail call float @sqrtf(float %7) #12
  %9 = fmul float %6, 0xBF96290BA0000000
  %10 = fadd float %9, 0x3FB3F68760000000
  %11 = fmul float %6, %10
  %12 = fadd float %11, 0xBFCB4D7260000000
  %13 = fmul float %6, %12
  %14 = fadd float %13, 0x3FF921FB60000000
  %15 = fmul float %8, %14
  %16 = fsub float 0x3FF921FB60000000, %15
  %17 = tail call float @copysignf(float %16, float %a) #12
  ret float %17
}

; Function Attrs: nounwind uwtable
define void @osl_asin_dfdf(i8* nocapture %r, i8* nocapture readonly %a) #4 {
  %1 = bitcast i8* %a to float*
  %2 = load float* %1, align 4, !tbaa !1
  %3 = tail call float @fabsf(float %2) #12
  %4 = fcmp olt float %3, 1.000000e+00
  br i1 %4, label %5, label %_ZN11OpenImageIO4v1_79fast_asinEf.exit.i

; <label>:5                                       ; preds = %0
  %6 = fsub float 1.000000e+00, %3
  %7 = fsub float 1.000000e+00, %6
  br label %_ZN11OpenImageIO4v1_79fast_asinEf.exit.i

_ZN11OpenImageIO4v1_79fast_asinEf.exit.i:         ; preds = %5, %0
  %8 = phi float [ %7, %5 ], [ 1.000000e+00, %0 ]
  %9 = fsub float 1.000000e+00, %8
  %10 = tail call float @sqrtf(float %9) #12
  %11 = fmul float %8, 0xBF96290BA0000000
  %12 = fadd float %11, 0x3FB3F68760000000
  %13 = fmul float %8, %12
  %14 = fadd float %13, 0xBFCB4D7260000000
  %15 = fmul float %8, %14
  %16 = fadd float %15, 0x3FF921FB60000000
  %17 = fmul float %10, %16
  %18 = fsub float 0x3FF921FB60000000, %17
  %19 = tail call float @copysignf(float %18, float %2) #12
  br i1 %4, label %20, label %_ZN3OSL9fast_asinERKNS_5Dual2IfEE.exit

; <label>:20                                      ; preds = %_ZN11OpenImageIO4v1_79fast_asinEf.exit.i
  %21 = fmul float %2, %2
  %22 = fsub float 1.000000e+00, %21
  %23 = tail call float @sqrtf(float %22) #12
  %24 = fdiv float 1.000000e+00, %23
  br label %_ZN3OSL9fast_asinERKNS_5Dual2IfEE.exit

_ZN3OSL9fast_asinERKNS_5Dual2IfEE.exit:           ; preds = %_ZN11OpenImageIO4v1_79fast_asinEf.exit.i, %20
  %25 = phi float [ %24, %20 ], [ 0.000000e+00, %_ZN11OpenImageIO4v1_79fast_asinEf.exit.i ]
  %26 = getelementptr inbounds i8* %a, i64 4
  %27 = bitcast i8* %26 to float*
  %28 = load float* %27, align 4, !tbaa !1
  %29 = fmul float %25, %28
  %30 = getelementptr inbounds i8* %a, i64 8
  %31 = bitcast i8* %30 to float*
  %32 = load float* %31, align 4, !tbaa !1
  %33 = fmul float %25, %32
  %34 = insertelement <2 x float> undef, float %19, i32 0
  %35 = insertelement <2 x float> %34, float %29, i32 1
  %36 = bitcast i8* %r to <2 x float>*
  store <2 x float> %35, <2 x float>* %36, align 4
  %37 = getelementptr inbounds i8* %r, i64 8
  %38 = bitcast i8* %37 to float*
  store float %33, float* %38, align 4
  ret void
}

; Function Attrs: nounwind uwtable
define void @osl_asin_vv(i8* nocapture %r_, i8* nocapture readonly %a_) #4 {
  %1 = bitcast i8* %a_ to float*
  %2 = load float* %1, align 4, !tbaa !1
  %3 = tail call float @fabsf(float %2) #12
  %4 = fcmp olt float %3, 1.000000e+00
  br i1 %4, label %5, label %_ZN11OpenImageIO4v1_79fast_asinEf.exit1

; <label>:5                                       ; preds = %0
  %6 = fsub float 1.000000e+00, %3
  %7 = fsub float 1.000000e+00, %6
  br label %_ZN11OpenImageIO4v1_79fast_asinEf.exit1

_ZN11OpenImageIO4v1_79fast_asinEf.exit1:          ; preds = %0, %5
  %8 = phi float [ %7, %5 ], [ 1.000000e+00, %0 ]
  %9 = fsub float 1.000000e+00, %8
  %10 = tail call float @sqrtf(float %9) #12
  %11 = fmul float %8, 0xBF96290BA0000000
  %12 = fadd float %11, 0x3FB3F68760000000
  %13 = fmul float %8, %12
  %14 = fadd float %13, 0xBFCB4D7260000000
  %15 = fmul float %8, %14
  %16 = fadd float %15, 0x3FF921FB60000000
  %17 = fmul float %10, %16
  %18 = fsub float 0x3FF921FB60000000, %17
  %19 = tail call float @copysignf(float %18, float %2) #12
  %20 = bitcast i8* %r_ to float*
  store float %19, float* %20, align 4, !tbaa !1
  %21 = getelementptr inbounds i8* %a_, i64 4
  %22 = bitcast i8* %21 to float*
  %23 = load float* %22, align 4, !tbaa !1
  %24 = tail call float @fabsf(float %23) #12
  %25 = fcmp olt float %24, 1.000000e+00
  br i1 %25, label %26, label %_ZN11OpenImageIO4v1_79fast_asinEf.exit2

; <label>:26                                      ; preds = %_ZN11OpenImageIO4v1_79fast_asinEf.exit1
  %27 = fsub float 1.000000e+00, %24
  %28 = fsub float 1.000000e+00, %27
  br label %_ZN11OpenImageIO4v1_79fast_asinEf.exit2

_ZN11OpenImageIO4v1_79fast_asinEf.exit2:          ; preds = %_ZN11OpenImageIO4v1_79fast_asinEf.exit1, %26
  %29 = phi float [ %28, %26 ], [ 1.000000e+00, %_ZN11OpenImageIO4v1_79fast_asinEf.exit1 ]
  %30 = fsub float 1.000000e+00, %29
  %31 = tail call float @sqrtf(float %30) #12
  %32 = fmul float %29, 0xBF96290BA0000000
  %33 = fadd float %32, 0x3FB3F68760000000
  %34 = fmul float %29, %33
  %35 = fadd float %34, 0xBFCB4D7260000000
  %36 = fmul float %29, %35
  %37 = fadd float %36, 0x3FF921FB60000000
  %38 = fmul float %31, %37
  %39 = fsub float 0x3FF921FB60000000, %38
  %40 = tail call float @copysignf(float %39, float %23) #12
  %41 = getelementptr inbounds i8* %r_, i64 4
  %42 = bitcast i8* %41 to float*
  store float %40, float* %42, align 4, !tbaa !1
  %43 = getelementptr inbounds i8* %a_, i64 8
  %44 = bitcast i8* %43 to float*
  %45 = load float* %44, align 4, !tbaa !1
  %46 = tail call float @fabsf(float %45) #12
  %47 = fcmp olt float %46, 1.000000e+00
  br i1 %47, label %48, label %_ZN11OpenImageIO4v1_79fast_asinEf.exit

; <label>:48                                      ; preds = %_ZN11OpenImageIO4v1_79fast_asinEf.exit2
  %49 = fsub float 1.000000e+00, %46
  %50 = fsub float 1.000000e+00, %49
  br label %_ZN11OpenImageIO4v1_79fast_asinEf.exit

_ZN11OpenImageIO4v1_79fast_asinEf.exit:           ; preds = %_ZN11OpenImageIO4v1_79fast_asinEf.exit2, %48
  %51 = phi float [ %50, %48 ], [ 1.000000e+00, %_ZN11OpenImageIO4v1_79fast_asinEf.exit2 ]
  %52 = fsub float 1.000000e+00, %51
  %53 = tail call float @sqrtf(float %52) #12
  %54 = fmul float %51, 0xBF96290BA0000000
  %55 = fadd float %54, 0x3FB3F68760000000
  %56 = fmul float %51, %55
  %57 = fadd float %56, 0xBFCB4D7260000000
  %58 = fmul float %51, %57
  %59 = fadd float %58, 0x3FF921FB60000000
  %60 = fmul float %53, %59
  %61 = fsub float 0x3FF921FB60000000, %60
  %62 = tail call float @copysignf(float %61, float %45) #12
  %63 = getelementptr inbounds i8* %r_, i64 8
  %64 = bitcast i8* %63 to float*
  store float %62, float* %64, align 4, !tbaa !1
  ret void
}

; Function Attrs: nounwind uwtable
define void @osl_asin_dvdv(i8* nocapture %r_, i8* nocapture readonly %a_) #4 {
  %1 = bitcast i8* %a_ to float*
  %2 = getelementptr inbounds i8* %a_, i64 12
  %3 = bitcast i8* %2 to float*
  %4 = getelementptr inbounds i8* %a_, i64 24
  %5 = bitcast i8* %4 to float*
  %6 = load float* %1, align 4, !tbaa !1
  %7 = load float* %3, align 4, !tbaa !1
  %8 = load float* %5, align 4, !tbaa !1
  %9 = tail call float @fabsf(float %6) #12
  %10 = fcmp olt float %9, 1.000000e+00
  br i1 %10, label %11, label %_ZN11OpenImageIO4v1_79fast_asinEf.exit.i13

; <label>:11                                      ; preds = %0
  %12 = fsub float 1.000000e+00, %9
  %13 = fsub float 1.000000e+00, %12
  br label %_ZN11OpenImageIO4v1_79fast_asinEf.exit.i13

_ZN11OpenImageIO4v1_79fast_asinEf.exit.i13:       ; preds = %11, %0
  %14 = phi float [ %13, %11 ], [ 1.000000e+00, %0 ]
  %15 = fsub float 1.000000e+00, %14
  %16 = tail call float @sqrtf(float %15) #12
  %17 = fmul float %14, 0xBF96290BA0000000
  %18 = fadd float %17, 0x3FB3F68760000000
  %19 = fmul float %14, %18
  %20 = fadd float %19, 0xBFCB4D7260000000
  %21 = fmul float %14, %20
  %22 = fadd float %21, 0x3FF921FB60000000
  %23 = fmul float %16, %22
  %24 = fsub float 0x3FF921FB60000000, %23
  %25 = tail call float @copysignf(float %24, float %6) #12
  br i1 %10, label %26, label %_ZN3OSL9fast_asinERKNS_5Dual2IfEE.exit14

; <label>:26                                      ; preds = %_ZN11OpenImageIO4v1_79fast_asinEf.exit.i13
  %27 = fmul float %6, %6
  %28 = fsub float 1.000000e+00, %27
  %29 = tail call float @sqrtf(float %28) #12
  %30 = fdiv float 1.000000e+00, %29
  br label %_ZN3OSL9fast_asinERKNS_5Dual2IfEE.exit14

_ZN3OSL9fast_asinERKNS_5Dual2IfEE.exit14:         ; preds = %_ZN11OpenImageIO4v1_79fast_asinEf.exit.i13, %26
  %31 = phi float [ %30, %26 ], [ 0.000000e+00, %_ZN11OpenImageIO4v1_79fast_asinEf.exit.i13 ]
  %32 = fmul float %7, %31
  %33 = fmul float %8, %31
  %34 = getelementptr inbounds i8* %a_, i64 4
  %35 = bitcast i8* %34 to float*
  %36 = getelementptr inbounds i8* %a_, i64 16
  %37 = bitcast i8* %36 to float*
  %38 = getelementptr inbounds i8* %a_, i64 28
  %39 = bitcast i8* %38 to float*
  %40 = load float* %35, align 4, !tbaa !1
  %41 = load float* %37, align 4, !tbaa !1
  %42 = load float* %39, align 4, !tbaa !1
  %43 = tail call float @fabsf(float %40) #12
  %44 = fcmp olt float %43, 1.000000e+00
  br i1 %44, label %45, label %_ZN11OpenImageIO4v1_79fast_asinEf.exit.i11

; <label>:45                                      ; preds = %_ZN3OSL9fast_asinERKNS_5Dual2IfEE.exit14
  %46 = fsub float 1.000000e+00, %43
  %47 = fsub float 1.000000e+00, %46
  br label %_ZN11OpenImageIO4v1_79fast_asinEf.exit.i11

_ZN11OpenImageIO4v1_79fast_asinEf.exit.i11:       ; preds = %45, %_ZN3OSL9fast_asinERKNS_5Dual2IfEE.exit14
  %48 = phi float [ %47, %45 ], [ 1.000000e+00, %_ZN3OSL9fast_asinERKNS_5Dual2IfEE.exit14 ]
  %49 = fsub float 1.000000e+00, %48
  %50 = tail call float @sqrtf(float %49) #12
  %51 = fmul float %48, 0xBF96290BA0000000
  %52 = fadd float %51, 0x3FB3F68760000000
  %53 = fmul float %48, %52
  %54 = fadd float %53, 0xBFCB4D7260000000
  %55 = fmul float %48, %54
  %56 = fadd float %55, 0x3FF921FB60000000
  %57 = fmul float %50, %56
  %58 = fsub float 0x3FF921FB60000000, %57
  %59 = tail call float @copysignf(float %58, float %40) #12
  br i1 %44, label %60, label %_ZN3OSL9fast_asinERKNS_5Dual2IfEE.exit12

; <label>:60                                      ; preds = %_ZN11OpenImageIO4v1_79fast_asinEf.exit.i11
  %61 = fmul float %40, %40
  %62 = fsub float 1.000000e+00, %61
  %63 = tail call float @sqrtf(float %62) #12
  %64 = fdiv float 1.000000e+00, %63
  br label %_ZN3OSL9fast_asinERKNS_5Dual2IfEE.exit12

_ZN3OSL9fast_asinERKNS_5Dual2IfEE.exit12:         ; preds = %_ZN11OpenImageIO4v1_79fast_asinEf.exit.i11, %60
  %65 = phi float [ %64, %60 ], [ 0.000000e+00, %_ZN11OpenImageIO4v1_79fast_asinEf.exit.i11 ]
  %66 = fmul float %41, %65
  %67 = fmul float %42, %65
  %68 = getelementptr inbounds i8* %a_, i64 8
  %69 = bitcast i8* %68 to float*
  %70 = getelementptr inbounds i8* %a_, i64 20
  %71 = bitcast i8* %70 to float*
  %72 = getelementptr inbounds i8* %a_, i64 32
  %73 = bitcast i8* %72 to float*
  %74 = load float* %69, align 4, !tbaa !1
  %75 = load float* %71, align 4, !tbaa !1
  %76 = load float* %73, align 4, !tbaa !1
  %77 = tail call float @fabsf(float %74) #12
  %78 = fcmp olt float %77, 1.000000e+00
  br i1 %78, label %79, label %_ZN11OpenImageIO4v1_79fast_asinEf.exit.i

; <label>:79                                      ; preds = %_ZN3OSL9fast_asinERKNS_5Dual2IfEE.exit12
  %80 = fsub float 1.000000e+00, %77
  %81 = fsub float 1.000000e+00, %80
  br label %_ZN11OpenImageIO4v1_79fast_asinEf.exit.i

_ZN11OpenImageIO4v1_79fast_asinEf.exit.i:         ; preds = %79, %_ZN3OSL9fast_asinERKNS_5Dual2IfEE.exit12
  %82 = phi float [ %81, %79 ], [ 1.000000e+00, %_ZN3OSL9fast_asinERKNS_5Dual2IfEE.exit12 ]
  %83 = fsub float 1.000000e+00, %82
  %84 = tail call float @sqrtf(float %83) #12
  %85 = fmul float %82, 0xBF96290BA0000000
  %86 = fadd float %85, 0x3FB3F68760000000
  %87 = fmul float %82, %86
  %88 = fadd float %87, 0xBFCB4D7260000000
  %89 = fmul float %82, %88
  %90 = fadd float %89, 0x3FF921FB60000000
  %91 = fmul float %84, %90
  %92 = fsub float 0x3FF921FB60000000, %91
  %93 = tail call float @copysignf(float %92, float %74) #12
  br i1 %78, label %94, label %_ZN3OSL9fast_asinERKNS_5Dual2IfEE.exit

; <label>:94                                      ; preds = %_ZN11OpenImageIO4v1_79fast_asinEf.exit.i
  %95 = fmul float %74, %74
  %96 = fsub float 1.000000e+00, %95
  %97 = tail call float @sqrtf(float %96) #12
  %98 = fdiv float 1.000000e+00, %97
  br label %_ZN3OSL9fast_asinERKNS_5Dual2IfEE.exit

_ZN3OSL9fast_asinERKNS_5Dual2IfEE.exit:           ; preds = %_ZN11OpenImageIO4v1_79fast_asinEf.exit.i, %94
  %99 = phi float [ %98, %94 ], [ 0.000000e+00, %_ZN11OpenImageIO4v1_79fast_asinEf.exit.i ]
  %100 = fmul float %75, %99
  %101 = fmul float %76, %99
  %102 = bitcast i8* %r_ to float*
  store float %25, float* %102, align 4, !tbaa !5
  %103 = getelementptr inbounds i8* %r_, i64 4
  %104 = bitcast i8* %103 to float*
  store float %59, float* %104, align 4, !tbaa !7
  %105 = getelementptr inbounds i8* %r_, i64 8
  %106 = bitcast i8* %105 to float*
  store float %93, float* %106, align 4, !tbaa !8
  %107 = getelementptr inbounds i8* %r_, i64 12
  %108 = bitcast i8* %107 to float*
  store float %32, float* %108, align 4, !tbaa !5
  %109 = getelementptr inbounds i8* %r_, i64 16
  %110 = bitcast i8* %109 to float*
  store float %66, float* %110, align 4, !tbaa !7
  %111 = getelementptr inbounds i8* %r_, i64 20
  %112 = bitcast i8* %111 to float*
  store float %100, float* %112, align 4, !tbaa !8
  %113 = getelementptr inbounds i8* %r_, i64 24
  %114 = bitcast i8* %113 to float*
  store float %33, float* %114, align 4, !tbaa !5
  %115 = getelementptr inbounds i8* %r_, i64 28
  %116 = bitcast i8* %115 to float*
  store float %67, float* %116, align 4, !tbaa !7
  %117 = getelementptr inbounds i8* %r_, i64 32
  %118 = bitcast i8* %117 to float*
  store float %101, float* %118, align 4, !tbaa !8
  ret void
}

; Function Attrs: nounwind readnone uwtable
define float @osl_acos_ff(float %a) #3 {
  %1 = tail call float @fabsf(float %a) #12
  %2 = fcmp olt float %1, 1.000000e+00
  br i1 %2, label %3, label %6

; <label>:3                                       ; preds = %0
  %4 = fsub float 1.000000e+00, %1
  %5 = fsub float 1.000000e+00, %4
  br label %6

; <label>:6                                       ; preds = %3, %0
  %7 = phi float [ %5, %3 ], [ 1.000000e+00, %0 ]
  %8 = fsub float 1.000000e+00, %7
  %9 = tail call float @sqrtf(float %8) #12
  %10 = fmul float %7, 0xBF96290BA0000000
  %11 = fadd float %10, 0x3FB3F68760000000
  %12 = fmul float %7, %11
  %13 = fadd float %12, 0xBFCB4D7260000000
  %14 = fmul float %7, %13
  %15 = fadd float %14, 0x3FF921FB60000000
  %16 = fmul float %9, %15
  %17 = fcmp olt float %a, 0.000000e+00
  br i1 %17, label %18, label %_ZN11OpenImageIO4v1_79fast_acosEf.exit

; <label>:18                                      ; preds = %6
  %19 = fsub float 0x400921FB60000000, %16
  br label %_ZN11OpenImageIO4v1_79fast_acosEf.exit

_ZN11OpenImageIO4v1_79fast_acosEf.exit:           ; preds = %6, %18
  %20 = phi float [ %19, %18 ], [ %16, %6 ]
  ret float %20
}

; Function Attrs: nounwind uwtable
define void @osl_acos_dfdf(i8* nocapture %r, i8* nocapture readonly %a) #4 {
  %1 = bitcast i8* %a to float*
  %2 = load float* %1, align 4, !tbaa !1
  %3 = tail call float @fabsf(float %2) #12
  %4 = fcmp olt float %3, 1.000000e+00
  br i1 %4, label %5, label %8

; <label>:5                                       ; preds = %0
  %6 = fsub float 1.000000e+00, %3
  %7 = fsub float 1.000000e+00, %6
  br label %8

; <label>:8                                       ; preds = %5, %0
  %9 = phi float [ %7, %5 ], [ 1.000000e+00, %0 ]
  %10 = fsub float 1.000000e+00, %9
  %11 = tail call float @sqrtf(float %10) #12
  %12 = fmul float %9, 0xBF96290BA0000000
  %13 = fadd float %12, 0x3FB3F68760000000
  %14 = fmul float %9, %13
  %15 = fadd float %14, 0xBFCB4D7260000000
  %16 = fmul float %9, %15
  %17 = fadd float %16, 0x3FF921FB60000000
  %18 = fmul float %11, %17
  %19 = fcmp olt float %2, 0.000000e+00
  br i1 %19, label %20, label %_ZN11OpenImageIO4v1_79fast_acosEf.exit.i

; <label>:20                                      ; preds = %8
  %21 = fsub float 0x400921FB60000000, %18
  br label %_ZN11OpenImageIO4v1_79fast_acosEf.exit.i

_ZN11OpenImageIO4v1_79fast_acosEf.exit.i:         ; preds = %20, %8
  %22 = phi float [ %21, %20 ], [ %18, %8 ]
  br i1 %4, label %23, label %_ZN3OSL9fast_acosERKNS_5Dual2IfEE.exit

; <label>:23                                      ; preds = %_ZN11OpenImageIO4v1_79fast_acosEf.exit.i
  %24 = fmul float %2, %2
  %25 = fsub float 1.000000e+00, %24
  %26 = tail call float @sqrtf(float %25) #12
  %27 = fdiv float -1.000000e+00, %26
  br label %_ZN3OSL9fast_acosERKNS_5Dual2IfEE.exit

_ZN3OSL9fast_acosERKNS_5Dual2IfEE.exit:           ; preds = %_ZN11OpenImageIO4v1_79fast_acosEf.exit.i, %23
  %28 = phi float [ %27, %23 ], [ 0.000000e+00, %_ZN11OpenImageIO4v1_79fast_acosEf.exit.i ]
  %29 = getelementptr inbounds i8* %a, i64 4
  %30 = bitcast i8* %29 to float*
  %31 = load float* %30, align 4, !tbaa !1
  %32 = fmul float %28, %31
  %33 = getelementptr inbounds i8* %a, i64 8
  %34 = bitcast i8* %33 to float*
  %35 = load float* %34, align 4, !tbaa !1
  %36 = fmul float %28, %35
  %37 = insertelement <2 x float> undef, float %22, i32 0
  %38 = insertelement <2 x float> %37, float %32, i32 1
  %39 = bitcast i8* %r to <2 x float>*
  store <2 x float> %38, <2 x float>* %39, align 4
  %40 = getelementptr inbounds i8* %r, i64 8
  %41 = bitcast i8* %40 to float*
  store float %36, float* %41, align 4
  ret void
}

; Function Attrs: nounwind uwtable
define void @osl_acos_vv(i8* nocapture %r_, i8* nocapture readonly %a_) #4 {
  %1 = bitcast i8* %a_ to float*
  %2 = load float* %1, align 4, !tbaa !1
  %3 = tail call float @fabsf(float %2) #12
  %4 = fcmp olt float %3, 1.000000e+00
  br i1 %4, label %5, label %8

; <label>:5                                       ; preds = %0
  %6 = fsub float 1.000000e+00, %3
  %7 = fsub float 1.000000e+00, %6
  br label %8

; <label>:8                                       ; preds = %5, %0
  %9 = phi float [ %7, %5 ], [ 1.000000e+00, %0 ]
  %10 = fsub float 1.000000e+00, %9
  %11 = tail call float @sqrtf(float %10) #12
  %12 = fmul float %9, 0xBF96290BA0000000
  %13 = fadd float %12, 0x3FB3F68760000000
  %14 = fmul float %9, %13
  %15 = fadd float %14, 0xBFCB4D7260000000
  %16 = fmul float %9, %15
  %17 = fadd float %16, 0x3FF921FB60000000
  %18 = fmul float %11, %17
  %19 = fcmp olt float %2, 0.000000e+00
  br i1 %19, label %20, label %_ZN11OpenImageIO4v1_79fast_acosEf.exit1

; <label>:20                                      ; preds = %8
  %21 = fsub float 0x400921FB60000000, %18
  br label %_ZN11OpenImageIO4v1_79fast_acosEf.exit1

_ZN11OpenImageIO4v1_79fast_acosEf.exit1:          ; preds = %8, %20
  %22 = phi float [ %21, %20 ], [ %18, %8 ]
  %23 = bitcast i8* %r_ to float*
  store float %22, float* %23, align 4, !tbaa !1
  %24 = getelementptr inbounds i8* %a_, i64 4
  %25 = bitcast i8* %24 to float*
  %26 = load float* %25, align 4, !tbaa !1
  %27 = tail call float @fabsf(float %26) #12
  %28 = fcmp olt float %27, 1.000000e+00
  br i1 %28, label %29, label %32

; <label>:29                                      ; preds = %_ZN11OpenImageIO4v1_79fast_acosEf.exit1
  %30 = fsub float 1.000000e+00, %27
  %31 = fsub float 1.000000e+00, %30
  br label %32

; <label>:32                                      ; preds = %29, %_ZN11OpenImageIO4v1_79fast_acosEf.exit1
  %33 = phi float [ %31, %29 ], [ 1.000000e+00, %_ZN11OpenImageIO4v1_79fast_acosEf.exit1 ]
  %34 = fsub float 1.000000e+00, %33
  %35 = tail call float @sqrtf(float %34) #12
  %36 = fmul float %33, 0xBF96290BA0000000
  %37 = fadd float %36, 0x3FB3F68760000000
  %38 = fmul float %33, %37
  %39 = fadd float %38, 0xBFCB4D7260000000
  %40 = fmul float %33, %39
  %41 = fadd float %40, 0x3FF921FB60000000
  %42 = fmul float %35, %41
  %43 = fcmp olt float %26, 0.000000e+00
  br i1 %43, label %44, label %_ZN11OpenImageIO4v1_79fast_acosEf.exit2

; <label>:44                                      ; preds = %32
  %45 = fsub float 0x400921FB60000000, %42
  br label %_ZN11OpenImageIO4v1_79fast_acosEf.exit2

_ZN11OpenImageIO4v1_79fast_acosEf.exit2:          ; preds = %32, %44
  %46 = phi float [ %45, %44 ], [ %42, %32 ]
  %47 = getelementptr inbounds i8* %r_, i64 4
  %48 = bitcast i8* %47 to float*
  store float %46, float* %48, align 4, !tbaa !1
  %49 = getelementptr inbounds i8* %a_, i64 8
  %50 = bitcast i8* %49 to float*
  %51 = load float* %50, align 4, !tbaa !1
  %52 = tail call float @fabsf(float %51) #12
  %53 = fcmp olt float %52, 1.000000e+00
  br i1 %53, label %54, label %57

; <label>:54                                      ; preds = %_ZN11OpenImageIO4v1_79fast_acosEf.exit2
  %55 = fsub float 1.000000e+00, %52
  %56 = fsub float 1.000000e+00, %55
  br label %57

; <label>:57                                      ; preds = %54, %_ZN11OpenImageIO4v1_79fast_acosEf.exit2
  %58 = phi float [ %56, %54 ], [ 1.000000e+00, %_ZN11OpenImageIO4v1_79fast_acosEf.exit2 ]
  %59 = fsub float 1.000000e+00, %58
  %60 = tail call float @sqrtf(float %59) #12
  %61 = fmul float %58, 0xBF96290BA0000000
  %62 = fadd float %61, 0x3FB3F68760000000
  %63 = fmul float %58, %62
  %64 = fadd float %63, 0xBFCB4D7260000000
  %65 = fmul float %58, %64
  %66 = fadd float %65, 0x3FF921FB60000000
  %67 = fmul float %60, %66
  %68 = fcmp olt float %51, 0.000000e+00
  br i1 %68, label %69, label %_ZN11OpenImageIO4v1_79fast_acosEf.exit

; <label>:69                                      ; preds = %57
  %70 = fsub float 0x400921FB60000000, %67
  br label %_ZN11OpenImageIO4v1_79fast_acosEf.exit

_ZN11OpenImageIO4v1_79fast_acosEf.exit:           ; preds = %57, %69
  %71 = phi float [ %70, %69 ], [ %67, %57 ]
  %72 = getelementptr inbounds i8* %r_, i64 8
  %73 = bitcast i8* %72 to float*
  store float %71, float* %73, align 4, !tbaa !1
  ret void
}

; Function Attrs: nounwind uwtable
define void @osl_acos_dvdv(i8* nocapture %r_, i8* nocapture readonly %a_) #4 {
  %1 = bitcast i8* %a_ to float*
  %2 = getelementptr inbounds i8* %a_, i64 12
  %3 = bitcast i8* %2 to float*
  %4 = getelementptr inbounds i8* %a_, i64 24
  %5 = bitcast i8* %4 to float*
  %6 = load float* %1, align 4, !tbaa !1
  %7 = load float* %3, align 4, !tbaa !1
  %8 = load float* %5, align 4, !tbaa !1
  %9 = tail call float @fabsf(float %6) #12
  %10 = fcmp olt float %9, 1.000000e+00
  br i1 %10, label %11, label %14

; <label>:11                                      ; preds = %0
  %12 = fsub float 1.000000e+00, %9
  %13 = fsub float 1.000000e+00, %12
  br label %14

; <label>:14                                      ; preds = %11, %0
  %15 = phi float [ %13, %11 ], [ 1.000000e+00, %0 ]
  %16 = fsub float 1.000000e+00, %15
  %17 = tail call float @sqrtf(float %16) #12
  %18 = fmul float %15, 0xBF96290BA0000000
  %19 = fadd float %18, 0x3FB3F68760000000
  %20 = fmul float %15, %19
  %21 = fadd float %20, 0xBFCB4D7260000000
  %22 = fmul float %15, %21
  %23 = fadd float %22, 0x3FF921FB60000000
  %24 = fmul float %17, %23
  %25 = fcmp olt float %6, 0.000000e+00
  br i1 %25, label %26, label %_ZN11OpenImageIO4v1_79fast_acosEf.exit.i13

; <label>:26                                      ; preds = %14
  %27 = fsub float 0x400921FB60000000, %24
  br label %_ZN11OpenImageIO4v1_79fast_acosEf.exit.i13

_ZN11OpenImageIO4v1_79fast_acosEf.exit.i13:       ; preds = %26, %14
  %28 = phi float [ %27, %26 ], [ %24, %14 ]
  br i1 %10, label %29, label %_ZN3OSL9fast_acosERKNS_5Dual2IfEE.exit14

; <label>:29                                      ; preds = %_ZN11OpenImageIO4v1_79fast_acosEf.exit.i13
  %30 = fmul float %6, %6
  %31 = fsub float 1.000000e+00, %30
  %32 = tail call float @sqrtf(float %31) #12
  %33 = fdiv float -1.000000e+00, %32
  br label %_ZN3OSL9fast_acosERKNS_5Dual2IfEE.exit14

_ZN3OSL9fast_acosERKNS_5Dual2IfEE.exit14:         ; preds = %_ZN11OpenImageIO4v1_79fast_acosEf.exit.i13, %29
  %34 = phi float [ %33, %29 ], [ 0.000000e+00, %_ZN11OpenImageIO4v1_79fast_acosEf.exit.i13 ]
  %35 = fmul float %7, %34
  %36 = fmul float %8, %34
  %37 = getelementptr inbounds i8* %a_, i64 4
  %38 = bitcast i8* %37 to float*
  %39 = getelementptr inbounds i8* %a_, i64 16
  %40 = bitcast i8* %39 to float*
  %41 = getelementptr inbounds i8* %a_, i64 28
  %42 = bitcast i8* %41 to float*
  %43 = load float* %38, align 4, !tbaa !1
  %44 = load float* %40, align 4, !tbaa !1
  %45 = load float* %42, align 4, !tbaa !1
  %46 = tail call float @fabsf(float %43) #12
  %47 = fcmp olt float %46, 1.000000e+00
  br i1 %47, label %48, label %51

; <label>:48                                      ; preds = %_ZN3OSL9fast_acosERKNS_5Dual2IfEE.exit14
  %49 = fsub float 1.000000e+00, %46
  %50 = fsub float 1.000000e+00, %49
  br label %51

; <label>:51                                      ; preds = %48, %_ZN3OSL9fast_acosERKNS_5Dual2IfEE.exit14
  %52 = phi float [ %50, %48 ], [ 1.000000e+00, %_ZN3OSL9fast_acosERKNS_5Dual2IfEE.exit14 ]
  %53 = fsub float 1.000000e+00, %52
  %54 = tail call float @sqrtf(float %53) #12
  %55 = fmul float %52, 0xBF96290BA0000000
  %56 = fadd float %55, 0x3FB3F68760000000
  %57 = fmul float %52, %56
  %58 = fadd float %57, 0xBFCB4D7260000000
  %59 = fmul float %52, %58
  %60 = fadd float %59, 0x3FF921FB60000000
  %61 = fmul float %54, %60
  %62 = fcmp olt float %43, 0.000000e+00
  br i1 %62, label %63, label %_ZN11OpenImageIO4v1_79fast_acosEf.exit.i11

; <label>:63                                      ; preds = %51
  %64 = fsub float 0x400921FB60000000, %61
  br label %_ZN11OpenImageIO4v1_79fast_acosEf.exit.i11

_ZN11OpenImageIO4v1_79fast_acosEf.exit.i11:       ; preds = %63, %51
  %65 = phi float [ %64, %63 ], [ %61, %51 ]
  br i1 %47, label %66, label %_ZN3OSL9fast_acosERKNS_5Dual2IfEE.exit12

; <label>:66                                      ; preds = %_ZN11OpenImageIO4v1_79fast_acosEf.exit.i11
  %67 = fmul float %43, %43
  %68 = fsub float 1.000000e+00, %67
  %69 = tail call float @sqrtf(float %68) #12
  %70 = fdiv float -1.000000e+00, %69
  br label %_ZN3OSL9fast_acosERKNS_5Dual2IfEE.exit12

_ZN3OSL9fast_acosERKNS_5Dual2IfEE.exit12:         ; preds = %_ZN11OpenImageIO4v1_79fast_acosEf.exit.i11, %66
  %71 = phi float [ %70, %66 ], [ 0.000000e+00, %_ZN11OpenImageIO4v1_79fast_acosEf.exit.i11 ]
  %72 = fmul float %44, %71
  %73 = fmul float %45, %71
  %74 = getelementptr inbounds i8* %a_, i64 8
  %75 = bitcast i8* %74 to float*
  %76 = getelementptr inbounds i8* %a_, i64 20
  %77 = bitcast i8* %76 to float*
  %78 = getelementptr inbounds i8* %a_, i64 32
  %79 = bitcast i8* %78 to float*
  %80 = load float* %75, align 4, !tbaa !1
  %81 = load float* %77, align 4, !tbaa !1
  %82 = load float* %79, align 4, !tbaa !1
  %83 = tail call float @fabsf(float %80) #12
  %84 = fcmp olt float %83, 1.000000e+00
  br i1 %84, label %85, label %88

; <label>:85                                      ; preds = %_ZN3OSL9fast_acosERKNS_5Dual2IfEE.exit12
  %86 = fsub float 1.000000e+00, %83
  %87 = fsub float 1.000000e+00, %86
  br label %88

; <label>:88                                      ; preds = %85, %_ZN3OSL9fast_acosERKNS_5Dual2IfEE.exit12
  %89 = phi float [ %87, %85 ], [ 1.000000e+00, %_ZN3OSL9fast_acosERKNS_5Dual2IfEE.exit12 ]
  %90 = fsub float 1.000000e+00, %89
  %91 = tail call float @sqrtf(float %90) #12
  %92 = fmul float %89, 0xBF96290BA0000000
  %93 = fadd float %92, 0x3FB3F68760000000
  %94 = fmul float %89, %93
  %95 = fadd float %94, 0xBFCB4D7260000000
  %96 = fmul float %89, %95
  %97 = fadd float %96, 0x3FF921FB60000000
  %98 = fmul float %91, %97
  %99 = fcmp olt float %80, 0.000000e+00
  br i1 %99, label %100, label %_ZN11OpenImageIO4v1_79fast_acosEf.exit.i

; <label>:100                                     ; preds = %88
  %101 = fsub float 0x400921FB60000000, %98
  br label %_ZN11OpenImageIO4v1_79fast_acosEf.exit.i

_ZN11OpenImageIO4v1_79fast_acosEf.exit.i:         ; preds = %100, %88
  %102 = phi float [ %101, %100 ], [ %98, %88 ]
  br i1 %84, label %103, label %_ZN3OSL9fast_acosERKNS_5Dual2IfEE.exit

; <label>:103                                     ; preds = %_ZN11OpenImageIO4v1_79fast_acosEf.exit.i
  %104 = fmul float %80, %80
  %105 = fsub float 1.000000e+00, %104
  %106 = tail call float @sqrtf(float %105) #12
  %107 = fdiv float -1.000000e+00, %106
  br label %_ZN3OSL9fast_acosERKNS_5Dual2IfEE.exit

_ZN3OSL9fast_acosERKNS_5Dual2IfEE.exit:           ; preds = %_ZN11OpenImageIO4v1_79fast_acosEf.exit.i, %103
  %108 = phi float [ %107, %103 ], [ 0.000000e+00, %_ZN11OpenImageIO4v1_79fast_acosEf.exit.i ]
  %109 = fmul float %81, %108
  %110 = fmul float %82, %108
  %111 = bitcast i8* %r_ to float*
  store float %28, float* %111, align 4, !tbaa !5
  %112 = getelementptr inbounds i8* %r_, i64 4
  %113 = bitcast i8* %112 to float*
  store float %65, float* %113, align 4, !tbaa !7
  %114 = getelementptr inbounds i8* %r_, i64 8
  %115 = bitcast i8* %114 to float*
  store float %102, float* %115, align 4, !tbaa !8
  %116 = getelementptr inbounds i8* %r_, i64 12
  %117 = bitcast i8* %116 to float*
  store float %35, float* %117, align 4, !tbaa !5
  %118 = getelementptr inbounds i8* %r_, i64 16
  %119 = bitcast i8* %118 to float*
  store float %72, float* %119, align 4, !tbaa !7
  %120 = getelementptr inbounds i8* %r_, i64 20
  %121 = bitcast i8* %120 to float*
  store float %109, float* %121, align 4, !tbaa !8
  %122 = getelementptr inbounds i8* %r_, i64 24
  %123 = bitcast i8* %122 to float*
  store float %36, float* %123, align 4, !tbaa !5
  %124 = getelementptr inbounds i8* %r_, i64 28
  %125 = bitcast i8* %124 to float*
  store float %73, float* %125, align 4, !tbaa !7
  %126 = getelementptr inbounds i8* %r_, i64 32
  %127 = bitcast i8* %126 to float*
  store float %110, float* %127, align 4, !tbaa !8
  ret void
}

; Function Attrs: nounwind readnone uwtable
define float @osl_atan_ff(float %a) #3 {
  %1 = tail call float @fabsf(float %a) #12
  %2 = fcmp ogt float %1, 1.000000e+00
  br i1 %2, label %3, label %5

; <label>:3                                       ; preds = %0
  %4 = fdiv float 1.000000e+00, %1
  br label %5

; <label>:5                                       ; preds = %3, %0
  %6 = phi float [ %4, %3 ], [ %1, %0 ]
  %7 = fsub float 1.000000e+00, %6
  %8 = fsub float 1.000000e+00, %7
  %9 = fmul float %8, %8
  %10 = fmul float %9, 0x3FDB9F00A0000000
  %11 = fadd float %10, 1.000000e+00
  %12 = fmul float %8, %11
  %13 = fmul float %9, 0x3FADDC09A0000000
  %14 = fadd float %13, 0x3FE87649C0000000
  %15 = fmul float %9, %14
  %16 = fadd float %15, 1.000000e+00
  %17 = fdiv float %12, %16
  br i1 %2, label %18, label %_ZN11OpenImageIO4v1_79fast_atanEf.exit

; <label>:18                                      ; preds = %5
  %19 = fsub float 0x3FF921FB60000000, %17
  br label %_ZN11OpenImageIO4v1_79fast_atanEf.exit

_ZN11OpenImageIO4v1_79fast_atanEf.exit:           ; preds = %5, %18
  %r.0.i = phi float [ %19, %18 ], [ %17, %5 ]
  %20 = tail call float @copysignf(float %r.0.i, float %a) #12
  ret float %20
}

; Function Attrs: nounwind uwtable
define void @osl_atan_dfdf(i8* nocapture %r, i8* nocapture readonly %a) #4 {
  %1 = bitcast i8* %a to float*
  %2 = load float* %1, align 4, !tbaa !1
  %3 = tail call float @fabsf(float %2) #12
  %4 = fcmp ogt float %3, 1.000000e+00
  br i1 %4, label %5, label %7

; <label>:5                                       ; preds = %0
  %6 = fdiv float 1.000000e+00, %3
  br label %7

; <label>:7                                       ; preds = %5, %0
  %8 = phi float [ %6, %5 ], [ %3, %0 ]
  %9 = fsub float 1.000000e+00, %8
  %10 = fsub float 1.000000e+00, %9
  %11 = fmul float %10, %10
  %12 = fmul float %11, 0x3FDB9F00A0000000
  %13 = fadd float %12, 1.000000e+00
  %14 = fmul float %10, %13
  %15 = fmul float %11, 0x3FADDC09A0000000
  %16 = fadd float %15, 0x3FE87649C0000000
  %17 = fmul float %11, %16
  %18 = fadd float %17, 1.000000e+00
  %19 = fdiv float %14, %18
  br i1 %4, label %20, label %_ZN3OSL9fast_atanERKNS_5Dual2IfEE.exit

; <label>:20                                      ; preds = %7
  %21 = fsub float 0x3FF921FB60000000, %19
  br label %_ZN3OSL9fast_atanERKNS_5Dual2IfEE.exit

_ZN3OSL9fast_atanERKNS_5Dual2IfEE.exit:           ; preds = %7, %20
  %r.0.i.i = phi float [ %21, %20 ], [ %19, %7 ]
  %22 = tail call float @copysignf(float %r.0.i.i, float %2) #12
  %23 = fmul float %2, %2
  %24 = fadd float %23, 1.000000e+00
  %25 = fdiv float 1.000000e+00, %24
  %26 = getelementptr inbounds i8* %a, i64 4
  %27 = bitcast i8* %26 to float*
  %28 = load float* %27, align 4, !tbaa !1
  %29 = fmul float %25, %28
  %30 = getelementptr inbounds i8* %a, i64 8
  %31 = bitcast i8* %30 to float*
  %32 = load float* %31, align 4, !tbaa !1
  %33 = fmul float %25, %32
  %34 = insertelement <2 x float> undef, float %22, i32 0
  %35 = insertelement <2 x float> %34, float %29, i32 1
  %36 = bitcast i8* %r to <2 x float>*
  store <2 x float> %35, <2 x float>* %36, align 4
  %37 = getelementptr inbounds i8* %r, i64 8
  %38 = bitcast i8* %37 to float*
  store float %33, float* %38, align 4
  ret void
}

; Function Attrs: nounwind uwtable
define void @osl_atan_vv(i8* nocapture %r_, i8* nocapture readonly %a_) #4 {
  %1 = bitcast i8* %a_ to float*
  %2 = load float* %1, align 4, !tbaa !1
  %3 = tail call float @fabsf(float %2) #12
  %4 = fcmp ogt float %3, 1.000000e+00
  br i1 %4, label %5, label %7

; <label>:5                                       ; preds = %0
  %6 = fdiv float 1.000000e+00, %3
  br label %7

; <label>:7                                       ; preds = %5, %0
  %8 = phi float [ %6, %5 ], [ %3, %0 ]
  %9 = fsub float 1.000000e+00, %8
  %10 = fsub float 1.000000e+00, %9
  %11 = fmul float %10, %10
  %12 = fmul float %11, 0x3FDB9F00A0000000
  %13 = fadd float %12, 1.000000e+00
  %14 = fmul float %10, %13
  %15 = fmul float %11, 0x3FADDC09A0000000
  %16 = fadd float %15, 0x3FE87649C0000000
  %17 = fmul float %11, %16
  %18 = fadd float %17, 1.000000e+00
  %19 = fdiv float %14, %18
  br i1 %4, label %20, label %_ZN11OpenImageIO4v1_79fast_atanEf.exit2

; <label>:20                                      ; preds = %7
  %21 = fsub float 0x3FF921FB60000000, %19
  br label %_ZN11OpenImageIO4v1_79fast_atanEf.exit2

_ZN11OpenImageIO4v1_79fast_atanEf.exit2:          ; preds = %7, %20
  %r.0.i1 = phi float [ %21, %20 ], [ %19, %7 ]
  %22 = tail call float @copysignf(float %r.0.i1, float %2) #12
  %23 = bitcast i8* %r_ to float*
  store float %22, float* %23, align 4, !tbaa !1
  %24 = getelementptr inbounds i8* %a_, i64 4
  %25 = bitcast i8* %24 to float*
  %26 = load float* %25, align 4, !tbaa !1
  %27 = tail call float @fabsf(float %26) #12
  %28 = fcmp ogt float %27, 1.000000e+00
  br i1 %28, label %29, label %31

; <label>:29                                      ; preds = %_ZN11OpenImageIO4v1_79fast_atanEf.exit2
  %30 = fdiv float 1.000000e+00, %27
  br label %31

; <label>:31                                      ; preds = %29, %_ZN11OpenImageIO4v1_79fast_atanEf.exit2
  %32 = phi float [ %30, %29 ], [ %27, %_ZN11OpenImageIO4v1_79fast_atanEf.exit2 ]
  %33 = fsub float 1.000000e+00, %32
  %34 = fsub float 1.000000e+00, %33
  %35 = fmul float %34, %34
  %36 = fmul float %35, 0x3FDB9F00A0000000
  %37 = fadd float %36, 1.000000e+00
  %38 = fmul float %34, %37
  %39 = fmul float %35, 0x3FADDC09A0000000
  %40 = fadd float %39, 0x3FE87649C0000000
  %41 = fmul float %35, %40
  %42 = fadd float %41, 1.000000e+00
  %43 = fdiv float %38, %42
  br i1 %28, label %44, label %_ZN11OpenImageIO4v1_79fast_atanEf.exit4

; <label>:44                                      ; preds = %31
  %45 = fsub float 0x3FF921FB60000000, %43
  br label %_ZN11OpenImageIO4v1_79fast_atanEf.exit4

_ZN11OpenImageIO4v1_79fast_atanEf.exit4:          ; preds = %31, %44
  %r.0.i3 = phi float [ %45, %44 ], [ %43, %31 ]
  %46 = tail call float @copysignf(float %r.0.i3, float %26) #12
  %47 = getelementptr inbounds i8* %r_, i64 4
  %48 = bitcast i8* %47 to float*
  store float %46, float* %48, align 4, !tbaa !1
  %49 = getelementptr inbounds i8* %a_, i64 8
  %50 = bitcast i8* %49 to float*
  %51 = load float* %50, align 4, !tbaa !1
  %52 = tail call float @fabsf(float %51) #12
  %53 = fcmp ogt float %52, 1.000000e+00
  br i1 %53, label %54, label %56

; <label>:54                                      ; preds = %_ZN11OpenImageIO4v1_79fast_atanEf.exit4
  %55 = fdiv float 1.000000e+00, %52
  br label %56

; <label>:56                                      ; preds = %54, %_ZN11OpenImageIO4v1_79fast_atanEf.exit4
  %57 = phi float [ %55, %54 ], [ %52, %_ZN11OpenImageIO4v1_79fast_atanEf.exit4 ]
  %58 = fsub float 1.000000e+00, %57
  %59 = fsub float 1.000000e+00, %58
  %60 = fmul float %59, %59
  %61 = fmul float %60, 0x3FDB9F00A0000000
  %62 = fadd float %61, 1.000000e+00
  %63 = fmul float %59, %62
  %64 = fmul float %60, 0x3FADDC09A0000000
  %65 = fadd float %64, 0x3FE87649C0000000
  %66 = fmul float %60, %65
  %67 = fadd float %66, 1.000000e+00
  %68 = fdiv float %63, %67
  br i1 %53, label %69, label %_ZN11OpenImageIO4v1_79fast_atanEf.exit

; <label>:69                                      ; preds = %56
  %70 = fsub float 0x3FF921FB60000000, %68
  br label %_ZN11OpenImageIO4v1_79fast_atanEf.exit

_ZN11OpenImageIO4v1_79fast_atanEf.exit:           ; preds = %56, %69
  %r.0.i = phi float [ %70, %69 ], [ %68, %56 ]
  %71 = tail call float @copysignf(float %r.0.i, float %51) #12
  %72 = getelementptr inbounds i8* %r_, i64 8
  %73 = bitcast i8* %72 to float*
  store float %71, float* %73, align 4, !tbaa !1
  ret void
}

; Function Attrs: nounwind uwtable
define void @osl_atan_dvdv(i8* nocapture %r_, i8* nocapture readonly %a_) #4 {
  %1 = bitcast i8* %a_ to float*
  %2 = getelementptr inbounds i8* %a_, i64 12
  %3 = bitcast i8* %2 to float*
  %4 = getelementptr inbounds i8* %a_, i64 24
  %5 = bitcast i8* %4 to float*
  %6 = load float* %1, align 4, !tbaa !1
  %7 = load float* %3, align 4, !tbaa !1
  %8 = load float* %5, align 4, !tbaa !1
  %9 = tail call float @fabsf(float %6) #12
  %10 = fcmp ogt float %9, 1.000000e+00
  br i1 %10, label %11, label %13

; <label>:11                                      ; preds = %0
  %12 = fdiv float 1.000000e+00, %9
  br label %13

; <label>:13                                      ; preds = %11, %0
  %14 = phi float [ %12, %11 ], [ %9, %0 ]
  %15 = fsub float 1.000000e+00, %14
  %16 = fsub float 1.000000e+00, %15
  %17 = fmul float %16, %16
  %18 = fmul float %17, 0x3FDB9F00A0000000
  %19 = fadd float %18, 1.000000e+00
  %20 = fmul float %16, %19
  %21 = fmul float %17, 0x3FADDC09A0000000
  %22 = fadd float %21, 0x3FE87649C0000000
  %23 = fmul float %17, %22
  %24 = fadd float %23, 1.000000e+00
  %25 = fdiv float %20, %24
  br i1 %10, label %26, label %_ZN3OSL9fast_atanERKNS_5Dual2IfEE.exit14

; <label>:26                                      ; preds = %13
  %27 = fsub float 0x3FF921FB60000000, %25
  br label %_ZN3OSL9fast_atanERKNS_5Dual2IfEE.exit14

_ZN3OSL9fast_atanERKNS_5Dual2IfEE.exit14:         ; preds = %13, %26
  %r.0.i.i13 = phi float [ %27, %26 ], [ %25, %13 ]
  %28 = tail call float @copysignf(float %r.0.i.i13, float %6) #12
  %29 = fmul float %6, %6
  %30 = fadd float %29, 1.000000e+00
  %31 = fdiv float 1.000000e+00, %30
  %32 = fmul float %7, %31
  %33 = fmul float %8, %31
  %34 = getelementptr inbounds i8* %a_, i64 4
  %35 = bitcast i8* %34 to float*
  %36 = getelementptr inbounds i8* %a_, i64 16
  %37 = bitcast i8* %36 to float*
  %38 = getelementptr inbounds i8* %a_, i64 28
  %39 = bitcast i8* %38 to float*
  %40 = load float* %35, align 4, !tbaa !1
  %41 = load float* %37, align 4, !tbaa !1
  %42 = load float* %39, align 4, !tbaa !1
  %43 = tail call float @fabsf(float %40) #12
  %44 = fcmp ogt float %43, 1.000000e+00
  br i1 %44, label %45, label %47

; <label>:45                                      ; preds = %_ZN3OSL9fast_atanERKNS_5Dual2IfEE.exit14
  %46 = fdiv float 1.000000e+00, %43
  br label %47

; <label>:47                                      ; preds = %45, %_ZN3OSL9fast_atanERKNS_5Dual2IfEE.exit14
  %48 = phi float [ %46, %45 ], [ %43, %_ZN3OSL9fast_atanERKNS_5Dual2IfEE.exit14 ]
  %49 = fsub float 1.000000e+00, %48
  %50 = fsub float 1.000000e+00, %49
  %51 = fmul float %50, %50
  %52 = fmul float %51, 0x3FDB9F00A0000000
  %53 = fadd float %52, 1.000000e+00
  %54 = fmul float %50, %53
  %55 = fmul float %51, 0x3FADDC09A0000000
  %56 = fadd float %55, 0x3FE87649C0000000
  %57 = fmul float %51, %56
  %58 = fadd float %57, 1.000000e+00
  %59 = fdiv float %54, %58
  br i1 %44, label %60, label %_ZN3OSL9fast_atanERKNS_5Dual2IfEE.exit12

; <label>:60                                      ; preds = %47
  %61 = fsub float 0x3FF921FB60000000, %59
  br label %_ZN3OSL9fast_atanERKNS_5Dual2IfEE.exit12

_ZN3OSL9fast_atanERKNS_5Dual2IfEE.exit12:         ; preds = %47, %60
  %r.0.i.i11 = phi float [ %61, %60 ], [ %59, %47 ]
  %62 = tail call float @copysignf(float %r.0.i.i11, float %40) #12
  %63 = fmul float %40, %40
  %64 = fadd float %63, 1.000000e+00
  %65 = fdiv float 1.000000e+00, %64
  %66 = fmul float %41, %65
  %67 = fmul float %42, %65
  %68 = getelementptr inbounds i8* %a_, i64 8
  %69 = bitcast i8* %68 to float*
  %70 = getelementptr inbounds i8* %a_, i64 20
  %71 = bitcast i8* %70 to float*
  %72 = getelementptr inbounds i8* %a_, i64 32
  %73 = bitcast i8* %72 to float*
  %74 = load float* %69, align 4, !tbaa !1
  %75 = load float* %71, align 4, !tbaa !1
  %76 = load float* %73, align 4, !tbaa !1
  %77 = tail call float @fabsf(float %74) #12
  %78 = fcmp ogt float %77, 1.000000e+00
  br i1 %78, label %79, label %81

; <label>:79                                      ; preds = %_ZN3OSL9fast_atanERKNS_5Dual2IfEE.exit12
  %80 = fdiv float 1.000000e+00, %77
  br label %81

; <label>:81                                      ; preds = %79, %_ZN3OSL9fast_atanERKNS_5Dual2IfEE.exit12
  %82 = phi float [ %80, %79 ], [ %77, %_ZN3OSL9fast_atanERKNS_5Dual2IfEE.exit12 ]
  %83 = fsub float 1.000000e+00, %82
  %84 = fsub float 1.000000e+00, %83
  %85 = fmul float %84, %84
  %86 = fmul float %85, 0x3FDB9F00A0000000
  %87 = fadd float %86, 1.000000e+00
  %88 = fmul float %84, %87
  %89 = fmul float %85, 0x3FADDC09A0000000
  %90 = fadd float %89, 0x3FE87649C0000000
  %91 = fmul float %85, %90
  %92 = fadd float %91, 1.000000e+00
  %93 = fdiv float %88, %92
  br i1 %78, label %94, label %_ZN3OSL9fast_atanERKNS_5Dual2IfEE.exit

; <label>:94                                      ; preds = %81
  %95 = fsub float 0x3FF921FB60000000, %93
  br label %_ZN3OSL9fast_atanERKNS_5Dual2IfEE.exit

_ZN3OSL9fast_atanERKNS_5Dual2IfEE.exit:           ; preds = %81, %94
  %r.0.i.i = phi float [ %95, %94 ], [ %93, %81 ]
  %96 = tail call float @copysignf(float %r.0.i.i, float %74) #12
  %97 = fmul float %74, %74
  %98 = fadd float %97, 1.000000e+00
  %99 = fdiv float 1.000000e+00, %98
  %100 = fmul float %75, %99
  %101 = fmul float %76, %99
  %102 = bitcast i8* %r_ to float*
  store float %28, float* %102, align 4, !tbaa !5
  %103 = getelementptr inbounds i8* %r_, i64 4
  %104 = bitcast i8* %103 to float*
  store float %62, float* %104, align 4, !tbaa !7
  %105 = getelementptr inbounds i8* %r_, i64 8
  %106 = bitcast i8* %105 to float*
  store float %96, float* %106, align 4, !tbaa !8
  %107 = getelementptr inbounds i8* %r_, i64 12
  %108 = bitcast i8* %107 to float*
  store float %32, float* %108, align 4, !tbaa !5
  %109 = getelementptr inbounds i8* %r_, i64 16
  %110 = bitcast i8* %109 to float*
  store float %66, float* %110, align 4, !tbaa !7
  %111 = getelementptr inbounds i8* %r_, i64 20
  %112 = bitcast i8* %111 to float*
  store float %100, float* %112, align 4, !tbaa !8
  %113 = getelementptr inbounds i8* %r_, i64 24
  %114 = bitcast i8* %113 to float*
  store float %33, float* %114, align 4, !tbaa !5
  %115 = getelementptr inbounds i8* %r_, i64 28
  %116 = bitcast i8* %115 to float*
  store float %67, float* %116, align 4, !tbaa !7
  %117 = getelementptr inbounds i8* %r_, i64 32
  %118 = bitcast i8* %117 to float*
  store float %101, float* %118, align 4, !tbaa !8
  ret void
}

; Function Attrs: nounwind readnone uwtable
define float @osl_atan2_fff(float %a, float %b) #3 {
  %1 = tail call float @fabsf(float %b) #12
  %2 = tail call float @fabsf(float %a) #12
  %3 = fcmp oeq float %a, 0.000000e+00
  br i1 %3, label %12, label %4

; <label>:4                                       ; preds = %0
  %5 = fcmp oeq float %1, %2
  br i1 %5, label %12, label %6

; <label>:6                                       ; preds = %4
  %7 = fcmp ogt float %2, %1
  br i1 %7, label %8, label %10

; <label>:8                                       ; preds = %6
  %9 = fdiv float %1, %2
  br label %12

; <label>:10                                      ; preds = %6
  %11 = fdiv float %2, %1
  br label %12

; <label>:12                                      ; preds = %10, %8, %4, %0
  %13 = phi float [ 0.000000e+00, %0 ], [ 1.000000e+00, %4 ], [ %9, %8 ], [ %11, %10 ]
  %14 = fsub float 1.000000e+00, %13
  %15 = fsub float 1.000000e+00, %14
  %16 = fmul float %15, %15
  %17 = fmul float %16, 0x3FDB9F00A0000000
  %18 = fadd float %17, 1.000000e+00
  %19 = fmul float %15, %18
  %20 = fmul float %16, 0x3FADDC09A0000000
  %21 = fadd float %20, 0x3FE87649C0000000
  %22 = fmul float %16, %21
  %23 = fadd float %22, 1.000000e+00
  %24 = fdiv float %19, %23
  %25 = fcmp ogt float %2, %1
  br i1 %25, label %26, label %28

; <label>:26                                      ; preds = %12
  %27 = fsub float 0x3FF921FB60000000, %24
  br label %28

; <label>:28                                      ; preds = %26, %12
  %r.0.i = phi float [ %27, %26 ], [ %24, %12 ]
  %29 = bitcast float %b to i32
  %30 = icmp slt i32 %29, 0
  br i1 %30, label %31, label %_ZN11OpenImageIO4v1_710fast_atan2Eff.exit

; <label>:31                                      ; preds = %28
  %32 = fsub float 0x400921FB60000000, %r.0.i
  br label %_ZN11OpenImageIO4v1_710fast_atan2Eff.exit

_ZN11OpenImageIO4v1_710fast_atan2Eff.exit:        ; preds = %28, %31
  %r.1.i = phi float [ %32, %31 ], [ %r.0.i, %28 ]
  %33 = tail call float @copysignf(float %r.1.i, float %a) #12
  ret float %33
}

; Function Attrs: nounwind uwtable
define void @osl_atan2_dfdfdf(i8* nocapture %r, i8* nocapture readonly %a, i8* nocapture readonly %b) #4 {
  %1 = bitcast i8* %a to float*
  %2 = load float* %1, align 4, !tbaa !1
  %3 = bitcast i8* %b to float*
  %4 = load float* %3, align 4, !tbaa !1
  %5 = tail call float @fabsf(float %4) #12
  %6 = tail call float @fabsf(float %2) #12
  %7 = fcmp oeq float %2, 0.000000e+00
  br i1 %7, label %16, label %8

; <label>:8                                       ; preds = %0
  %9 = fcmp oeq float %5, %6
  br i1 %9, label %16, label %10

; <label>:10                                      ; preds = %8
  %11 = fcmp ogt float %6, %5
  br i1 %11, label %12, label %14

; <label>:12                                      ; preds = %10
  %13 = fdiv float %5, %6
  br label %16

; <label>:14                                      ; preds = %10
  %15 = fdiv float %6, %5
  br label %16

; <label>:16                                      ; preds = %14, %12, %8, %0
  %17 = phi float [ 0.000000e+00, %0 ], [ 1.000000e+00, %8 ], [ %13, %12 ], [ %15, %14 ]
  %18 = fsub float 1.000000e+00, %17
  %19 = fsub float 1.000000e+00, %18
  %20 = fmul float %19, %19
  %21 = fmul float %20, 0x3FDB9F00A0000000
  %22 = fadd float %21, 1.000000e+00
  %23 = fmul float %19, %22
  %24 = fmul float %20, 0x3FADDC09A0000000
  %25 = fadd float %24, 0x3FE87649C0000000
  %26 = fmul float %20, %25
  %27 = fadd float %26, 1.000000e+00
  %28 = fdiv float %23, %27
  %29 = fcmp ogt float %6, %5
  br i1 %29, label %30, label %32

; <label>:30                                      ; preds = %16
  %31 = fsub float 0x3FF921FB60000000, %28
  br label %32

; <label>:32                                      ; preds = %30, %16
  %r.0.i.i = phi float [ %31, %30 ], [ %28, %16 ]
  %33 = bitcast float %4 to i32
  %34 = icmp slt i32 %33, 0
  br i1 %34, label %35, label %_ZN11OpenImageIO4v1_710fast_atan2Eff.exit.i

; <label>:35                                      ; preds = %32
  %36 = fsub float 0x400921FB60000000, %r.0.i.i
  br label %_ZN11OpenImageIO4v1_710fast_atan2Eff.exit.i

_ZN11OpenImageIO4v1_710fast_atan2Eff.exit.i:      ; preds = %35, %32
  %r.1.i.i = phi float [ %36, %35 ], [ %r.0.i.i, %32 ]
  %37 = tail call float @copysignf(float %r.1.i.i, float %2) #12
  %38 = fcmp oeq float %4, 0.000000e+00
  %or.cond.i = and i1 %38, %7
  br i1 %or.cond.i, label %_ZN3OSL10fast_atan2ERKNS_5Dual2IfEES3_.exit, label %39

; <label>:39                                      ; preds = %_ZN11OpenImageIO4v1_710fast_atan2Eff.exit.i
  %40 = fmul float %4, %4
  %41 = fmul float %2, %2
  %42 = fadd float %41, %40
  %43 = fdiv float 1.000000e+00, %42
  br label %_ZN3OSL10fast_atan2ERKNS_5Dual2IfEES3_.exit

_ZN3OSL10fast_atan2ERKNS_5Dual2IfEES3_.exit:      ; preds = %_ZN11OpenImageIO4v1_710fast_atan2Eff.exit.i, %39
  %44 = phi float [ %43, %39 ], [ 0.000000e+00, %_ZN11OpenImageIO4v1_710fast_atan2Eff.exit.i ]
  %45 = getelementptr inbounds i8* %b, i64 4
  %46 = bitcast i8* %45 to float*
  %47 = load float* %46, align 4, !tbaa !1
  %48 = fmul float %2, %47
  %49 = getelementptr inbounds i8* %a, i64 4
  %50 = bitcast i8* %49 to float*
  %51 = load float* %50, align 4, !tbaa !1
  %52 = fmul float %4, %51
  %53 = fsub float %48, %52
  %54 = fmul float %44, %53
  %55 = getelementptr inbounds i8* %b, i64 8
  %56 = bitcast i8* %55 to float*
  %57 = load float* %56, align 4, !tbaa !1
  %58 = fmul float %2, %57
  %59 = getelementptr inbounds i8* %a, i64 8
  %60 = bitcast i8* %59 to float*
  %61 = load float* %60, align 4, !tbaa !1
  %62 = fmul float %4, %61
  %63 = fsub float %58, %62
  %64 = fmul float %44, %63
  %65 = insertelement <2 x float> undef, float %37, i32 0
  %66 = insertelement <2 x float> %65, float %54, i32 1
  %67 = bitcast i8* %r to <2 x float>*
  store <2 x float> %66, <2 x float>* %67, align 4
  %68 = getelementptr inbounds i8* %r, i64 8
  %69 = bitcast i8* %68 to float*
  store float %64, float* %69, align 4
  ret void
}

; Function Attrs: nounwind uwtable
define void @osl_atan2_dffdf(i8* nocapture %r, float %a, i8* nocapture readonly %b) #4 {
  %1 = bitcast i8* %b to float*
  %2 = load float* %1, align 4, !tbaa !1
  %3 = tail call float @fabsf(float %2) #12
  %4 = tail call float @fabsf(float %a) #12
  %5 = fcmp oeq float %a, 0.000000e+00
  br i1 %5, label %14, label %6

; <label>:6                                       ; preds = %0
  %7 = fcmp oeq float %3, %4
  br i1 %7, label %14, label %8

; <label>:8                                       ; preds = %6
  %9 = fcmp ogt float %4, %3
  br i1 %9, label %10, label %12

; <label>:10                                      ; preds = %8
  %11 = fdiv float %3, %4
  br label %14

; <label>:12                                      ; preds = %8
  %13 = fdiv float %4, %3
  br label %14

; <label>:14                                      ; preds = %12, %10, %6, %0
  %15 = phi float [ 0.000000e+00, %0 ], [ 1.000000e+00, %6 ], [ %11, %10 ], [ %13, %12 ]
  %16 = fsub float 1.000000e+00, %15
  %17 = fsub float 1.000000e+00, %16
  %18 = fmul float %17, %17
  %19 = fmul float %18, 0x3FDB9F00A0000000
  %20 = fadd float %19, 1.000000e+00
  %21 = fmul float %17, %20
  %22 = fmul float %18, 0x3FADDC09A0000000
  %23 = fadd float %22, 0x3FE87649C0000000
  %24 = fmul float %18, %23
  %25 = fadd float %24, 1.000000e+00
  %26 = fdiv float %21, %25
  %27 = fcmp ogt float %4, %3
  br i1 %27, label %28, label %30

; <label>:28                                      ; preds = %14
  %29 = fsub float 0x3FF921FB60000000, %26
  br label %30

; <label>:30                                      ; preds = %28, %14
  %r.0.i.i = phi float [ %29, %28 ], [ %26, %14 ]
  %31 = bitcast float %2 to i32
  %32 = icmp slt i32 %31, 0
  br i1 %32, label %33, label %_ZN11OpenImageIO4v1_710fast_atan2Eff.exit.i

; <label>:33                                      ; preds = %30
  %34 = fsub float 0x400921FB60000000, %r.0.i.i
  br label %_ZN11OpenImageIO4v1_710fast_atan2Eff.exit.i

_ZN11OpenImageIO4v1_710fast_atan2Eff.exit.i:      ; preds = %33, %30
  %r.1.i.i = phi float [ %34, %33 ], [ %r.0.i.i, %30 ]
  %35 = tail call float @copysignf(float %r.1.i.i, float %a) #12
  %36 = fcmp oeq float %2, 0.000000e+00
  %or.cond.i = and i1 %36, %5
  br i1 %or.cond.i, label %_ZN3OSL10fast_atan2ERKNS_5Dual2IfEES3_.exit, label %37

; <label>:37                                      ; preds = %_ZN11OpenImageIO4v1_710fast_atan2Eff.exit.i
  %38 = fmul float %2, %2
  %39 = fmul float %a, %a
  %40 = fadd float %39, %38
  %41 = fdiv float 1.000000e+00, %40
  br label %_ZN3OSL10fast_atan2ERKNS_5Dual2IfEES3_.exit

_ZN3OSL10fast_atan2ERKNS_5Dual2IfEES3_.exit:      ; preds = %_ZN11OpenImageIO4v1_710fast_atan2Eff.exit.i, %37
  %42 = phi float [ %41, %37 ], [ 0.000000e+00, %_ZN11OpenImageIO4v1_710fast_atan2Eff.exit.i ]
  %43 = getelementptr inbounds i8* %b, i64 4
  %44 = bitcast i8* %43 to float*
  %45 = load float* %44, align 4, !tbaa !1
  %46 = fmul float %45, %a
  %47 = fmul float %2, 0.000000e+00
  %48 = fsub float %46, %47
  %49 = fmul float %42, %48
  %50 = getelementptr inbounds i8* %b, i64 8
  %51 = bitcast i8* %50 to float*
  %52 = load float* %51, align 4, !tbaa !1
  %53 = fmul float %52, %a
  %54 = fsub float %53, %47
  %55 = fmul float %42, %54
  %56 = insertelement <2 x float> undef, float %35, i32 0
  %57 = insertelement <2 x float> %56, float %49, i32 1
  %58 = bitcast i8* %r to <2 x float>*
  store <2 x float> %57, <2 x float>* %58, align 4
  %59 = getelementptr inbounds i8* %r, i64 8
  %60 = bitcast i8* %59 to float*
  store float %55, float* %60, align 4
  ret void
}

; Function Attrs: nounwind uwtable
define void @osl_atan2_dfdff(i8* nocapture %r, i8* nocapture readonly %a, float %b) #4 {
  %1 = bitcast i8* %a to float*
  %2 = load float* %1, align 4, !tbaa !1
  %3 = tail call float @fabsf(float %b) #12
  %4 = tail call float @fabsf(float %2) #12
  %5 = fcmp oeq float %2, 0.000000e+00
  br i1 %5, label %14, label %6

; <label>:6                                       ; preds = %0
  %7 = fcmp oeq float %3, %4
  br i1 %7, label %14, label %8

; <label>:8                                       ; preds = %6
  %9 = fcmp ogt float %4, %3
  br i1 %9, label %10, label %12

; <label>:10                                      ; preds = %8
  %11 = fdiv float %3, %4
  br label %14

; <label>:12                                      ; preds = %8
  %13 = fdiv float %4, %3
  br label %14

; <label>:14                                      ; preds = %12, %10, %6, %0
  %15 = phi float [ 0.000000e+00, %0 ], [ 1.000000e+00, %6 ], [ %11, %10 ], [ %13, %12 ]
  %16 = fsub float 1.000000e+00, %15
  %17 = fsub float 1.000000e+00, %16
  %18 = fmul float %17, %17
  %19 = fmul float %18, 0x3FDB9F00A0000000
  %20 = fadd float %19, 1.000000e+00
  %21 = fmul float %17, %20
  %22 = fmul float %18, 0x3FADDC09A0000000
  %23 = fadd float %22, 0x3FE87649C0000000
  %24 = fmul float %18, %23
  %25 = fadd float %24, 1.000000e+00
  %26 = fdiv float %21, %25
  %27 = fcmp ogt float %4, %3
  br i1 %27, label %28, label %30

; <label>:28                                      ; preds = %14
  %29 = fsub float 0x3FF921FB60000000, %26
  br label %30

; <label>:30                                      ; preds = %28, %14
  %r.0.i.i = phi float [ %29, %28 ], [ %26, %14 ]
  %31 = bitcast float %b to i32
  %32 = icmp slt i32 %31, 0
  br i1 %32, label %33, label %_ZN11OpenImageIO4v1_710fast_atan2Eff.exit.i

; <label>:33                                      ; preds = %30
  %34 = fsub float 0x400921FB60000000, %r.0.i.i
  br label %_ZN11OpenImageIO4v1_710fast_atan2Eff.exit.i

_ZN11OpenImageIO4v1_710fast_atan2Eff.exit.i:      ; preds = %33, %30
  %r.1.i.i = phi float [ %34, %33 ], [ %r.0.i.i, %30 ]
  %35 = tail call float @copysignf(float %r.1.i.i, float %2) #12
  %36 = fcmp oeq float %b, 0.000000e+00
  %or.cond.i = and i1 %36, %5
  br i1 %or.cond.i, label %_ZN3OSL10fast_atan2ERKNS_5Dual2IfEES3_.exit, label %37

; <label>:37                                      ; preds = %_ZN11OpenImageIO4v1_710fast_atan2Eff.exit.i
  %38 = fmul float %b, %b
  %39 = fmul float %2, %2
  %40 = fadd float %38, %39
  %41 = fdiv float 1.000000e+00, %40
  br label %_ZN3OSL10fast_atan2ERKNS_5Dual2IfEES3_.exit

_ZN3OSL10fast_atan2ERKNS_5Dual2IfEES3_.exit:      ; preds = %_ZN11OpenImageIO4v1_710fast_atan2Eff.exit.i, %37
  %42 = phi float [ %41, %37 ], [ 0.000000e+00, %_ZN11OpenImageIO4v1_710fast_atan2Eff.exit.i ]
  %43 = fmul float %2, 0.000000e+00
  %44 = getelementptr inbounds i8* %a, i64 4
  %45 = bitcast i8* %44 to float*
  %46 = load float* %45, align 4, !tbaa !1
  %47 = fmul float %46, %b
  %48 = fsub float %43, %47
  %49 = fmul float %42, %48
  %50 = getelementptr inbounds i8* %a, i64 8
  %51 = bitcast i8* %50 to float*
  %52 = load float* %51, align 4, !tbaa !1
  %53 = fmul float %52, %b
  %54 = fsub float %43, %53
  %55 = fmul float %42, %54
  %56 = insertelement <2 x float> undef, float %35, i32 0
  %57 = insertelement <2 x float> %56, float %49, i32 1
  %58 = bitcast i8* %r to <2 x float>*
  store <2 x float> %57, <2 x float>* %58, align 4
  %59 = getelementptr inbounds i8* %r, i64 8
  %60 = bitcast i8* %59 to float*
  store float %55, float* %60, align 4
  ret void
}

; Function Attrs: nounwind uwtable
define void @osl_atan2_vvv(i8* nocapture %r_, i8* nocapture readonly %a_, i8* nocapture readonly %b_) #4 {
  %1 = bitcast i8* %a_ to float*
  %2 = load float* %1, align 4, !tbaa !1
  %3 = bitcast i8* %b_ to float*
  %4 = load float* %3, align 4, !tbaa !1
  %5 = tail call float @fabsf(float %4) #12
  %6 = tail call float @fabsf(float %2) #12
  %7 = fcmp oeq float %2, 0.000000e+00
  br i1 %7, label %16, label %8

; <label>:8                                       ; preds = %0
  %9 = fcmp oeq float %5, %6
  br i1 %9, label %16, label %10

; <label>:10                                      ; preds = %8
  %11 = fcmp ogt float %6, %5
  br i1 %11, label %12, label %14

; <label>:12                                      ; preds = %10
  %13 = fdiv float %5, %6
  br label %16

; <label>:14                                      ; preds = %10
  %15 = fdiv float %6, %5
  br label %16

; <label>:16                                      ; preds = %14, %12, %8, %0
  %17 = phi float [ 0.000000e+00, %0 ], [ 1.000000e+00, %8 ], [ %13, %12 ], [ %15, %14 ]
  %18 = fsub float 1.000000e+00, %17
  %19 = fsub float 1.000000e+00, %18
  %20 = fmul float %19, %19
  %21 = fmul float %20, 0x3FDB9F00A0000000
  %22 = fadd float %21, 1.000000e+00
  %23 = fmul float %19, %22
  %24 = fmul float %20, 0x3FADDC09A0000000
  %25 = fadd float %24, 0x3FE87649C0000000
  %26 = fmul float %20, %25
  %27 = fadd float %26, 1.000000e+00
  %28 = fdiv float %23, %27
  %29 = fcmp ogt float %6, %5
  br i1 %29, label %30, label %32

; <label>:30                                      ; preds = %16
  %31 = fsub float 0x3FF921FB60000000, %28
  br label %32

; <label>:32                                      ; preds = %30, %16
  %r.0.i1 = phi float [ %31, %30 ], [ %28, %16 ]
  %33 = bitcast float %4 to i32
  %34 = icmp slt i32 %33, 0
  br i1 %34, label %35, label %_ZN11OpenImageIO4v1_710fast_atan2Eff.exit3

; <label>:35                                      ; preds = %32
  %36 = fsub float 0x400921FB60000000, %r.0.i1
  br label %_ZN11OpenImageIO4v1_710fast_atan2Eff.exit3

_ZN11OpenImageIO4v1_710fast_atan2Eff.exit3:       ; preds = %32, %35
  %r.1.i2 = phi float [ %36, %35 ], [ %r.0.i1, %32 ]
  %37 = tail call float @copysignf(float %r.1.i2, float %2) #12
  %38 = bitcast i8* %r_ to float*
  store float %37, float* %38, align 4, !tbaa !1
  %39 = getelementptr inbounds i8* %a_, i64 4
  %40 = bitcast i8* %39 to float*
  %41 = load float* %40, align 4, !tbaa !1
  %42 = getelementptr inbounds i8* %b_, i64 4
  %43 = bitcast i8* %42 to float*
  %44 = load float* %43, align 4, !tbaa !1
  %45 = tail call float @fabsf(float %44) #12
  %46 = tail call float @fabsf(float %41) #12
  %47 = fcmp oeq float %41, 0.000000e+00
  br i1 %47, label %56, label %48

; <label>:48                                      ; preds = %_ZN11OpenImageIO4v1_710fast_atan2Eff.exit3
  %49 = fcmp oeq float %45, %46
  br i1 %49, label %56, label %50

; <label>:50                                      ; preds = %48
  %51 = fcmp ogt float %46, %45
  br i1 %51, label %52, label %54

; <label>:52                                      ; preds = %50
  %53 = fdiv float %45, %46
  br label %56

; <label>:54                                      ; preds = %50
  %55 = fdiv float %46, %45
  br label %56

; <label>:56                                      ; preds = %54, %52, %48, %_ZN11OpenImageIO4v1_710fast_atan2Eff.exit3
  %57 = phi float [ 0.000000e+00, %_ZN11OpenImageIO4v1_710fast_atan2Eff.exit3 ], [ 1.000000e+00, %48 ], [ %53, %52 ], [ %55, %54 ]
  %58 = fsub float 1.000000e+00, %57
  %59 = fsub float 1.000000e+00, %58
  %60 = fmul float %59, %59
  %61 = fmul float %60, 0x3FDB9F00A0000000
  %62 = fadd float %61, 1.000000e+00
  %63 = fmul float %59, %62
  %64 = fmul float %60, 0x3FADDC09A0000000
  %65 = fadd float %64, 0x3FE87649C0000000
  %66 = fmul float %60, %65
  %67 = fadd float %66, 1.000000e+00
  %68 = fdiv float %63, %67
  %69 = fcmp ogt float %46, %45
  br i1 %69, label %70, label %72

; <label>:70                                      ; preds = %56
  %71 = fsub float 0x3FF921FB60000000, %68
  br label %72

; <label>:72                                      ; preds = %70, %56
  %r.0.i4 = phi float [ %71, %70 ], [ %68, %56 ]
  %73 = bitcast float %44 to i32
  %74 = icmp slt i32 %73, 0
  br i1 %74, label %75, label %_ZN11OpenImageIO4v1_710fast_atan2Eff.exit6

; <label>:75                                      ; preds = %72
  %76 = fsub float 0x400921FB60000000, %r.0.i4
  br label %_ZN11OpenImageIO4v1_710fast_atan2Eff.exit6

_ZN11OpenImageIO4v1_710fast_atan2Eff.exit6:       ; preds = %72, %75
  %r.1.i5 = phi float [ %76, %75 ], [ %r.0.i4, %72 ]
  %77 = tail call float @copysignf(float %r.1.i5, float %41) #12
  %78 = getelementptr inbounds i8* %r_, i64 4
  %79 = bitcast i8* %78 to float*
  store float %77, float* %79, align 4, !tbaa !1
  %80 = getelementptr inbounds i8* %a_, i64 8
  %81 = bitcast i8* %80 to float*
  %82 = load float* %81, align 4, !tbaa !1
  %83 = getelementptr inbounds i8* %b_, i64 8
  %84 = bitcast i8* %83 to float*
  %85 = load float* %84, align 4, !tbaa !1
  %86 = tail call float @fabsf(float %85) #12
  %87 = tail call float @fabsf(float %82) #12
  %88 = fcmp oeq float %82, 0.000000e+00
  br i1 %88, label %97, label %89

; <label>:89                                      ; preds = %_ZN11OpenImageIO4v1_710fast_atan2Eff.exit6
  %90 = fcmp oeq float %86, %87
  br i1 %90, label %97, label %91

; <label>:91                                      ; preds = %89
  %92 = fcmp ogt float %87, %86
  br i1 %92, label %93, label %95

; <label>:93                                      ; preds = %91
  %94 = fdiv float %86, %87
  br label %97

; <label>:95                                      ; preds = %91
  %96 = fdiv float %87, %86
  br label %97

; <label>:97                                      ; preds = %95, %93, %89, %_ZN11OpenImageIO4v1_710fast_atan2Eff.exit6
  %98 = phi float [ 0.000000e+00, %_ZN11OpenImageIO4v1_710fast_atan2Eff.exit6 ], [ 1.000000e+00, %89 ], [ %94, %93 ], [ %96, %95 ]
  %99 = fsub float 1.000000e+00, %98
  %100 = fsub float 1.000000e+00, %99
  %101 = fmul float %100, %100
  %102 = fmul float %101, 0x3FDB9F00A0000000
  %103 = fadd float %102, 1.000000e+00
  %104 = fmul float %100, %103
  %105 = fmul float %101, 0x3FADDC09A0000000
  %106 = fadd float %105, 0x3FE87649C0000000
  %107 = fmul float %101, %106
  %108 = fadd float %107, 1.000000e+00
  %109 = fdiv float %104, %108
  %110 = fcmp ogt float %87, %86
  br i1 %110, label %111, label %113

; <label>:111                                     ; preds = %97
  %112 = fsub float 0x3FF921FB60000000, %109
  br label %113

; <label>:113                                     ; preds = %111, %97
  %r.0.i = phi float [ %112, %111 ], [ %109, %97 ]
  %114 = bitcast float %85 to i32
  %115 = icmp slt i32 %114, 0
  br i1 %115, label %116, label %_ZN11OpenImageIO4v1_710fast_atan2Eff.exit

; <label>:116                                     ; preds = %113
  %117 = fsub float 0x400921FB60000000, %r.0.i
  br label %_ZN11OpenImageIO4v1_710fast_atan2Eff.exit

_ZN11OpenImageIO4v1_710fast_atan2Eff.exit:        ; preds = %113, %116
  %r.1.i = phi float [ %117, %116 ], [ %r.0.i, %113 ]
  %118 = tail call float @copysignf(float %r.1.i, float %82) #12
  %119 = getelementptr inbounds i8* %r_, i64 8
  %120 = bitcast i8* %119 to float*
  store float %118, float* %120, align 4, !tbaa !1
  ret void
}

; Function Attrs: nounwind uwtable
define void @osl_atan2_dvdvdv(i8* nocapture %r_, i8* nocapture readonly %a_, i8* nocapture readonly %b_) #4 {
  %1 = bitcast i8* %a_ to float*
  %2 = getelementptr inbounds i8* %a_, i64 12
  %3 = bitcast i8* %2 to float*
  %4 = getelementptr inbounds i8* %a_, i64 24
  %5 = bitcast i8* %4 to float*
  %6 = load float* %1, align 4, !tbaa !1
  %7 = load float* %3, align 4, !tbaa !1
  %8 = load float* %5, align 4, !tbaa !1
  %9 = bitcast i8* %b_ to float*
  %10 = getelementptr inbounds i8* %b_, i64 12
  %11 = bitcast i8* %10 to float*
  %12 = getelementptr inbounds i8* %b_, i64 24
  %13 = bitcast i8* %12 to float*
  %14 = load float* %9, align 4, !tbaa !1
  %15 = load float* %11, align 4, !tbaa !1
  %16 = load float* %13, align 4, !tbaa !1
  %17 = tail call float @fabsf(float %14) #12
  %18 = tail call float @fabsf(float %6) #12
  %19 = fcmp oeq float %6, 0.000000e+00
  br i1 %19, label %28, label %20

; <label>:20                                      ; preds = %0
  %21 = fcmp oeq float %17, %18
  br i1 %21, label %28, label %22

; <label>:22                                      ; preds = %20
  %23 = fcmp ogt float %18, %17
  br i1 %23, label %24, label %26

; <label>:24                                      ; preds = %22
  %25 = fdiv float %17, %18
  br label %28

; <label>:26                                      ; preds = %22
  %27 = fdiv float %18, %17
  br label %28

; <label>:28                                      ; preds = %26, %24, %20, %0
  %29 = phi float [ 0.000000e+00, %0 ], [ 1.000000e+00, %20 ], [ %25, %24 ], [ %27, %26 ]
  %30 = fsub float 1.000000e+00, %29
  %31 = fsub float 1.000000e+00, %30
  %32 = fmul float %31, %31
  %33 = fmul float %32, 0x3FDB9F00A0000000
  %34 = fadd float %33, 1.000000e+00
  %35 = fmul float %31, %34
  %36 = fmul float %32, 0x3FADDC09A0000000
  %37 = fadd float %36, 0x3FE87649C0000000
  %38 = fmul float %32, %37
  %39 = fadd float %38, 1.000000e+00
  %40 = fdiv float %35, %39
  %41 = fcmp ogt float %18, %17
  br i1 %41, label %42, label %44

; <label>:42                                      ; preds = %28
  %43 = fsub float 0x3FF921FB60000000, %40
  br label %44

; <label>:44                                      ; preds = %42, %28
  %r.0.i.i16 = phi float [ %43, %42 ], [ %40, %28 ]
  %45 = bitcast float %14 to i32
  %46 = icmp slt i32 %45, 0
  br i1 %46, label %47, label %_ZN11OpenImageIO4v1_710fast_atan2Eff.exit.i19

; <label>:47                                      ; preds = %44
  %48 = fsub float 0x400921FB60000000, %r.0.i.i16
  br label %_ZN11OpenImageIO4v1_710fast_atan2Eff.exit.i19

_ZN11OpenImageIO4v1_710fast_atan2Eff.exit.i19:    ; preds = %47, %44
  %r.1.i.i17 = phi float [ %48, %47 ], [ %r.0.i.i16, %44 ]
  %49 = tail call float @copysignf(float %r.1.i.i17, float %6) #12
  %50 = fcmp oeq float %14, 0.000000e+00
  %or.cond.i18 = and i1 %50, %19
  br i1 %or.cond.i18, label %_ZN3OSL10fast_atan2ERKNS_5Dual2IfEES3_.exit20, label %51

; <label>:51                                      ; preds = %_ZN11OpenImageIO4v1_710fast_atan2Eff.exit.i19
  %52 = fmul float %14, %14
  %53 = fmul float %6, %6
  %54 = fadd float %53, %52
  %55 = fdiv float 1.000000e+00, %54
  br label %_ZN3OSL10fast_atan2ERKNS_5Dual2IfEES3_.exit20

_ZN3OSL10fast_atan2ERKNS_5Dual2IfEES3_.exit20:    ; preds = %_ZN11OpenImageIO4v1_710fast_atan2Eff.exit.i19, %51
  %56 = phi float [ %55, %51 ], [ 0.000000e+00, %_ZN11OpenImageIO4v1_710fast_atan2Eff.exit.i19 ]
  %57 = fmul float %6, %15
  %58 = fmul float %7, %14
  %59 = fsub float %57, %58
  %60 = fmul float %59, %56
  %61 = fmul float %6, %16
  %62 = fmul float %8, %14
  %63 = fsub float %61, %62
  %64 = fmul float %63, %56
  %65 = getelementptr inbounds i8* %a_, i64 4
  %66 = bitcast i8* %65 to float*
  %67 = getelementptr inbounds i8* %a_, i64 16
  %68 = bitcast i8* %67 to float*
  %69 = getelementptr inbounds i8* %a_, i64 28
  %70 = bitcast i8* %69 to float*
  %71 = load float* %66, align 4, !tbaa !1
  %72 = load float* %68, align 4, !tbaa !1
  %73 = load float* %70, align 4, !tbaa !1
  %74 = getelementptr inbounds i8* %b_, i64 4
  %75 = bitcast i8* %74 to float*
  %76 = getelementptr inbounds i8* %b_, i64 16
  %77 = bitcast i8* %76 to float*
  %78 = getelementptr inbounds i8* %b_, i64 28
  %79 = bitcast i8* %78 to float*
  %80 = load float* %75, align 4, !tbaa !1
  %81 = load float* %77, align 4, !tbaa !1
  %82 = load float* %79, align 4, !tbaa !1
  %83 = tail call float @fabsf(float %80) #12
  %84 = tail call float @fabsf(float %71) #12
  %85 = fcmp oeq float %71, 0.000000e+00
  br i1 %85, label %94, label %86

; <label>:86                                      ; preds = %_ZN3OSL10fast_atan2ERKNS_5Dual2IfEES3_.exit20
  %87 = fcmp oeq float %83, %84
  br i1 %87, label %94, label %88

; <label>:88                                      ; preds = %86
  %89 = fcmp ogt float %84, %83
  br i1 %89, label %90, label %92

; <label>:90                                      ; preds = %88
  %91 = fdiv float %83, %84
  br label %94

; <label>:92                                      ; preds = %88
  %93 = fdiv float %84, %83
  br label %94

; <label>:94                                      ; preds = %92, %90, %86, %_ZN3OSL10fast_atan2ERKNS_5Dual2IfEES3_.exit20
  %95 = phi float [ 0.000000e+00, %_ZN3OSL10fast_atan2ERKNS_5Dual2IfEES3_.exit20 ], [ 1.000000e+00, %86 ], [ %91, %90 ], [ %93, %92 ]
  %96 = fsub float 1.000000e+00, %95
  %97 = fsub float 1.000000e+00, %96
  %98 = fmul float %97, %97
  %99 = fmul float %98, 0x3FDB9F00A0000000
  %100 = fadd float %99, 1.000000e+00
  %101 = fmul float %97, %100
  %102 = fmul float %98, 0x3FADDC09A0000000
  %103 = fadd float %102, 0x3FE87649C0000000
  %104 = fmul float %98, %103
  %105 = fadd float %104, 1.000000e+00
  %106 = fdiv float %101, %105
  %107 = fcmp ogt float %84, %83
  br i1 %107, label %108, label %110

; <label>:108                                     ; preds = %94
  %109 = fsub float 0x3FF921FB60000000, %106
  br label %110

; <label>:110                                     ; preds = %108, %94
  %r.0.i.i11 = phi float [ %109, %108 ], [ %106, %94 ]
  %111 = bitcast float %80 to i32
  %112 = icmp slt i32 %111, 0
  br i1 %112, label %113, label %_ZN11OpenImageIO4v1_710fast_atan2Eff.exit.i14

; <label>:113                                     ; preds = %110
  %114 = fsub float 0x400921FB60000000, %r.0.i.i11
  br label %_ZN11OpenImageIO4v1_710fast_atan2Eff.exit.i14

_ZN11OpenImageIO4v1_710fast_atan2Eff.exit.i14:    ; preds = %113, %110
  %r.1.i.i12 = phi float [ %114, %113 ], [ %r.0.i.i11, %110 ]
  %115 = tail call float @copysignf(float %r.1.i.i12, float %71) #12
  %116 = fcmp oeq float %80, 0.000000e+00
  %or.cond.i13 = and i1 %116, %85
  br i1 %or.cond.i13, label %_ZN3OSL10fast_atan2ERKNS_5Dual2IfEES3_.exit15, label %117

; <label>:117                                     ; preds = %_ZN11OpenImageIO4v1_710fast_atan2Eff.exit.i14
  %118 = fmul float %80, %80
  %119 = fmul float %71, %71
  %120 = fadd float %119, %118
  %121 = fdiv float 1.000000e+00, %120
  br label %_ZN3OSL10fast_atan2ERKNS_5Dual2IfEES3_.exit15

_ZN3OSL10fast_atan2ERKNS_5Dual2IfEES3_.exit15:    ; preds = %_ZN11OpenImageIO4v1_710fast_atan2Eff.exit.i14, %117
  %122 = phi float [ %121, %117 ], [ 0.000000e+00, %_ZN11OpenImageIO4v1_710fast_atan2Eff.exit.i14 ]
  %123 = fmul float %71, %81
  %124 = fmul float %72, %80
  %125 = fsub float %123, %124
  %126 = fmul float %125, %122
  %127 = fmul float %71, %82
  %128 = fmul float %73, %80
  %129 = fsub float %127, %128
  %130 = fmul float %129, %122
  %131 = getelementptr inbounds i8* %a_, i64 8
  %132 = bitcast i8* %131 to float*
  %133 = getelementptr inbounds i8* %a_, i64 20
  %134 = bitcast i8* %133 to float*
  %135 = getelementptr inbounds i8* %a_, i64 32
  %136 = bitcast i8* %135 to float*
  %137 = load float* %132, align 4, !tbaa !1
  %138 = load float* %134, align 4, !tbaa !1
  %139 = load float* %136, align 4, !tbaa !1
  %140 = getelementptr inbounds i8* %b_, i64 8
  %141 = bitcast i8* %140 to float*
  %142 = getelementptr inbounds i8* %b_, i64 20
  %143 = bitcast i8* %142 to float*
  %144 = getelementptr inbounds i8* %b_, i64 32
  %145 = bitcast i8* %144 to float*
  %146 = load float* %141, align 4, !tbaa !1
  %147 = load float* %143, align 4, !tbaa !1
  %148 = load float* %145, align 4, !tbaa !1
  %149 = tail call float @fabsf(float %146) #12
  %150 = tail call float @fabsf(float %137) #12
  %151 = fcmp oeq float %137, 0.000000e+00
  br i1 %151, label %160, label %152

; <label>:152                                     ; preds = %_ZN3OSL10fast_atan2ERKNS_5Dual2IfEES3_.exit15
  %153 = fcmp oeq float %149, %150
  br i1 %153, label %160, label %154

; <label>:154                                     ; preds = %152
  %155 = fcmp ogt float %150, %149
  br i1 %155, label %156, label %158

; <label>:156                                     ; preds = %154
  %157 = fdiv float %149, %150
  br label %160

; <label>:158                                     ; preds = %154
  %159 = fdiv float %150, %149
  br label %160

; <label>:160                                     ; preds = %158, %156, %152, %_ZN3OSL10fast_atan2ERKNS_5Dual2IfEES3_.exit15
  %161 = phi float [ 0.000000e+00, %_ZN3OSL10fast_atan2ERKNS_5Dual2IfEES3_.exit15 ], [ 1.000000e+00, %152 ], [ %157, %156 ], [ %159, %158 ]
  %162 = fsub float 1.000000e+00, %161
  %163 = fsub float 1.000000e+00, %162
  %164 = fmul float %163, %163
  %165 = fmul float %164, 0x3FDB9F00A0000000
  %166 = fadd float %165, 1.000000e+00
  %167 = fmul float %163, %166
  %168 = fmul float %164, 0x3FADDC09A0000000
  %169 = fadd float %168, 0x3FE87649C0000000
  %170 = fmul float %164, %169
  %171 = fadd float %170, 1.000000e+00
  %172 = fdiv float %167, %171
  %173 = fcmp ogt float %150, %149
  br i1 %173, label %174, label %176

; <label>:174                                     ; preds = %160
  %175 = fsub float 0x3FF921FB60000000, %172
  br label %176

; <label>:176                                     ; preds = %174, %160
  %r.0.i.i = phi float [ %175, %174 ], [ %172, %160 ]
  %177 = bitcast float %146 to i32
  %178 = icmp slt i32 %177, 0
  br i1 %178, label %179, label %_ZN11OpenImageIO4v1_710fast_atan2Eff.exit.i

; <label>:179                                     ; preds = %176
  %180 = fsub float 0x400921FB60000000, %r.0.i.i
  br label %_ZN11OpenImageIO4v1_710fast_atan2Eff.exit.i

_ZN11OpenImageIO4v1_710fast_atan2Eff.exit.i:      ; preds = %179, %176
  %r.1.i.i = phi float [ %180, %179 ], [ %r.0.i.i, %176 ]
  %181 = tail call float @copysignf(float %r.1.i.i, float %137) #12
  %182 = fcmp oeq float %146, 0.000000e+00
  %or.cond.i = and i1 %182, %151
  br i1 %or.cond.i, label %_ZN3OSL10fast_atan2ERKNS_5Dual2IfEES3_.exit, label %183

; <label>:183                                     ; preds = %_ZN11OpenImageIO4v1_710fast_atan2Eff.exit.i
  %184 = fmul float %146, %146
  %185 = fmul float %137, %137
  %186 = fadd float %185, %184
  %187 = fdiv float 1.000000e+00, %186
  br label %_ZN3OSL10fast_atan2ERKNS_5Dual2IfEES3_.exit

_ZN3OSL10fast_atan2ERKNS_5Dual2IfEES3_.exit:      ; preds = %_ZN11OpenImageIO4v1_710fast_atan2Eff.exit.i, %183
  %188 = phi float [ %187, %183 ], [ 0.000000e+00, %_ZN11OpenImageIO4v1_710fast_atan2Eff.exit.i ]
  %189 = fmul float %137, %147
  %190 = fmul float %138, %146
  %191 = fsub float %189, %190
  %192 = fmul float %191, %188
  %193 = fmul float %137, %148
  %194 = fmul float %139, %146
  %195 = fsub float %193, %194
  %196 = fmul float %195, %188
  %197 = bitcast i8* %r_ to float*
  store float %49, float* %197, align 4, !tbaa !5
  %198 = getelementptr inbounds i8* %r_, i64 4
  %199 = bitcast i8* %198 to float*
  store float %115, float* %199, align 4, !tbaa !7
  %200 = getelementptr inbounds i8* %r_, i64 8
  %201 = bitcast i8* %200 to float*
  store float %181, float* %201, align 4, !tbaa !8
  %202 = getelementptr inbounds i8* %r_, i64 12
  %203 = bitcast i8* %202 to float*
  store float %60, float* %203, align 4, !tbaa !5
  %204 = getelementptr inbounds i8* %r_, i64 16
  %205 = bitcast i8* %204 to float*
  store float %126, float* %205, align 4, !tbaa !7
  %206 = getelementptr inbounds i8* %r_, i64 20
  %207 = bitcast i8* %206 to float*
  store float %192, float* %207, align 4, !tbaa !8
  %208 = getelementptr inbounds i8* %r_, i64 24
  %209 = bitcast i8* %208 to float*
  store float %64, float* %209, align 4, !tbaa !5
  %210 = getelementptr inbounds i8* %r_, i64 28
  %211 = bitcast i8* %210 to float*
  store float %130, float* %211, align 4, !tbaa !7
  %212 = getelementptr inbounds i8* %r_, i64 32
  %213 = bitcast i8* %212 to float*
  store float %196, float* %213, align 4, !tbaa !8
  ret void
}

; Function Attrs: nounwind uwtable
define void @osl_atan2_dvvdv(i8* nocapture %r_, i8* nocapture readonly %a_, i8* nocapture readonly %b_) #4 {
  %a = alloca %"class.OSL::Dual2.0", align 4
  %1 = bitcast %"class.OSL::Dual2.0"* %a to i8*
  call void @llvm.lifetime.start(i64 36, i8* %1) #2
  %2 = bitcast i8* %a_ to float*
  %3 = load float* %2, align 4, !tbaa !5
  %4 = getelementptr inbounds %"class.OSL::Dual2.0"* %a, i64 0, i32 0, i32 0
  store float %3, float* %4, align 4, !tbaa !5
  %5 = getelementptr inbounds i8* %a_, i64 4
  %6 = bitcast i8* %5 to float*
  %7 = load float* %6, align 4, !tbaa !7
  %8 = getelementptr inbounds %"class.OSL::Dual2.0"* %a, i64 0, i32 0, i32 1
  store float %7, float* %8, align 4, !tbaa !7
  %9 = getelementptr inbounds i8* %a_, i64 8
  %10 = bitcast i8* %9 to float*
  %11 = load float* %10, align 4, !tbaa !8
  %12 = getelementptr inbounds %"class.OSL::Dual2.0"* %a, i64 0, i32 0, i32 2
  store float %11, float* %12, align 4, !tbaa !8
  %13 = getelementptr inbounds %"class.OSL::Dual2.0"* %a, i64 0, i32 1, i32 0
  %14 = bitcast float* %13 to i8*
  call void @llvm.memset.p0i8.i64(i8* %14, i8 0, i64 24, i32 4, i1 false) #2
  call void @osl_atan2_dvdvdv(i8* %r_, i8* %1, i8* %b_)
  call void @llvm.lifetime.end(i64 36, i8* %1) #2
  ret void
}

; Function Attrs: nounwind
declare void @llvm.lifetime.start(i64, i8* nocapture) #2

; Function Attrs: nounwind
declare void @llvm.lifetime.end(i64, i8* nocapture) #2

; Function Attrs: nounwind uwtable
define void @osl_atan2_dvdvv(i8* nocapture %r_, i8* nocapture readonly %a_, i8* nocapture readonly %b_) #4 {
  %b = alloca %"class.OSL::Dual2.0", align 4
  %1 = bitcast %"class.OSL::Dual2.0"* %b to i8*
  call void @llvm.lifetime.start(i64 36, i8* %1) #2
  %2 = bitcast i8* %b_ to float*
  %3 = load float* %2, align 4, !tbaa !5
  %4 = getelementptr inbounds %"class.OSL::Dual2.0"* %b, i64 0, i32 0, i32 0
  store float %3, float* %4, align 4, !tbaa !5
  %5 = getelementptr inbounds i8* %b_, i64 4
  %6 = bitcast i8* %5 to float*
  %7 = load float* %6, align 4, !tbaa !7
  %8 = getelementptr inbounds %"class.OSL::Dual2.0"* %b, i64 0, i32 0, i32 1
  store float %7, float* %8, align 4, !tbaa !7
  %9 = getelementptr inbounds i8* %b_, i64 8
  %10 = bitcast i8* %9 to float*
  %11 = load float* %10, align 4, !tbaa !8
  %12 = getelementptr inbounds %"class.OSL::Dual2.0"* %b, i64 0, i32 0, i32 2
  store float %11, float* %12, align 4, !tbaa !8
  %13 = getelementptr inbounds %"class.OSL::Dual2.0"* %b, i64 0, i32 1, i32 0
  %14 = bitcast float* %13 to i8*
  call void @llvm.memset.p0i8.i64(i8* %14, i8 0, i64 24, i32 4, i1 false) #2
  call void @osl_atan2_dvdvdv(i8* %r_, i8* %a_, i8* %1)
  call void @llvm.lifetime.end(i64 36, i8* %1) #2
  ret void
}

; Function Attrs: nounwind readnone uwtable
define float @osl_sinh_ff(float %a) #3 {
  %1 = tail call float @fabsf(float %a) #12
  %2 = fcmp ogt float %1, 1.000000e+00
  br i1 %2, label %3, label %32

; <label>:3                                       ; preds = %0
  %4 = fmul float %1, 0x3FF7154760000000
  %5 = fcmp olt float %4, -1.260000e+02
  br i1 %5, label %_ZN11OpenImageIO4v1_78fast_expIfEET_RKS2_.exit.i, label %6

; <label>:6                                       ; preds = %3
  %7 = fcmp ogt float %4, 1.260000e+02
  %8 = select i1 %7, float 1.260000e+02, float %4
  br label %_ZN11OpenImageIO4v1_78fast_expIfEET_RKS2_.exit.i

_ZN11OpenImageIO4v1_78fast_expIfEET_RKS2_.exit.i: ; preds = %6, %3
  %9 = phi float [ %8, %6 ], [ -1.260000e+02, %3 ]
  %10 = fptosi float %9 to i32
  %11 = sitofp i32 %10 to float
  %12 = fsub float %9, %11
  %13 = fsub float 1.000000e+00, %12
  %14 = fsub float 1.000000e+00, %13
  %15 = fmul float %14, 0x3F55D889C0000000
  %16 = fadd float %15, 0x3F84177340000000
  %17 = fmul float %14, %16
  %18 = fadd float %17, 0x3FAC6CE660000000
  %19 = fmul float %14, %18
  %20 = fadd float %19, 0x3FCEBE3240000000
  %21 = fmul float %14, %20
  %22 = fadd float %21, 0x3FE62E3E20000000
  %23 = fmul float %14, %22
  %24 = fadd float %23, 1.000000e+00
  %25 = bitcast float %24 to i32
  %26 = shl i32 %10, 23
  %27 = add i32 %25, %26
  %28 = bitcast i32 %27 to float
  %29 = fmul float %28, 5.000000e-01
  %30 = fdiv float 5.000000e-01, %28
  %31 = fsub float %29, %30
  br label %_ZN11OpenImageIO4v1_79fast_sinhEf.exit

; <label>:32                                      ; preds = %0
  %33 = fsub float 1.000000e+00, %1
  %34 = fsub float 1.000000e+00, %33
  %35 = fmul float %34, %34
  %36 = fmul float %35, 0x3F2ABB46A0000000
  %37 = fadd float %36, 0x3F810F44A0000000
  %38 = fmul float %35, %37
  %39 = fadd float %38, 0x3FC5555B00000000
  %40 = fmul float %34, %39
  %41 = fmul float %35, %40
  %42 = fadd float %34, %41
  br label %_ZN11OpenImageIO4v1_79fast_sinhEf.exit

_ZN11OpenImageIO4v1_79fast_sinhEf.exit:           ; preds = %_ZN11OpenImageIO4v1_78fast_expIfEET_RKS2_.exit.i, %32
  %.sink.i = phi float [ %31, %_ZN11OpenImageIO4v1_78fast_expIfEET_RKS2_.exit.i ], [ %42, %32 ]
  %43 = tail call float @copysignf(float %.sink.i, float %a) #12
  ret float %43
}

; Function Attrs: nounwind uwtable
define void @osl_sinh_dfdf(i8* nocapture %r, i8* nocapture readonly %a) #4 {
  %1 = bitcast i8* %a to %"class.OSL::Dual2"*
  %2 = tail call { <2 x float>, float } @_ZN3OSL9fast_sinhERKNS_5Dual2IfEE(%"class.OSL::Dual2"* dereferenceable(12) %1)
  %3 = extractvalue { <2 x float>, float } %2, 0
  %4 = extractvalue { <2 x float>, float } %2, 1
  %5 = bitcast i8* %r to <2 x float>*
  store <2 x float> %3, <2 x float>* %5, align 4
  %6 = getelementptr inbounds i8* %r, i64 8
  %7 = bitcast i8* %6 to float*
  store float %4, float* %7, align 4
  ret void
}

; Function Attrs: inlinehint nounwind readonly uwtable
define linkonce_odr { <2 x float>, float } @_ZN3OSL9fast_sinhERKNS_5Dual2IfEE(%"class.OSL::Dual2"* nocapture readonly dereferenceable(12) %a) #5 {
  %1 = getelementptr inbounds %"class.OSL::Dual2"* %a, i64 0, i32 0
  %2 = load float* %1, align 4, !tbaa !1
  %3 = tail call float @fabsf(float %2) #12
  %4 = fmul float %3, 0x3FF7154760000000
  %5 = fcmp olt float %4, -1.260000e+02
  br i1 %5, label %_ZN11OpenImageIO4v1_79fast_coshEf.exit, label %6

; <label>:6                                       ; preds = %0
  %7 = fcmp ogt float %4, 1.260000e+02
  %8 = select i1 %7, float 1.260000e+02, float %4
  br label %_ZN11OpenImageIO4v1_79fast_coshEf.exit

_ZN11OpenImageIO4v1_79fast_coshEf.exit:           ; preds = %0, %6
  %9 = phi float [ %8, %6 ], [ -1.260000e+02, %0 ]
  %10 = fptosi float %9 to i32
  %11 = sitofp i32 %10 to float
  %12 = fsub float %9, %11
  %13 = fsub float 1.000000e+00, %12
  %14 = fsub float 1.000000e+00, %13
  %15 = fmul float %14, 0x3F55D889C0000000
  %16 = fadd float %15, 0x3F84177340000000
  %17 = fmul float %14, %16
  %18 = fadd float %17, 0x3FAC6CE660000000
  %19 = fmul float %14, %18
  %20 = fadd float %19, 0x3FCEBE3240000000
  %21 = fmul float %14, %20
  %22 = fadd float %21, 0x3FE62E3E20000000
  %23 = fmul float %14, %22
  %24 = fadd float %23, 1.000000e+00
  %25 = bitcast float %24 to i32
  %26 = shl i32 %10, 23
  %27 = add i32 %25, %26
  %28 = bitcast i32 %27 to float
  %29 = fmul float %28, 5.000000e-01
  %30 = fdiv float 5.000000e-01, %28
  %31 = fadd float %30, %29
  %32 = fcmp ogt float %3, 1.000000e+00
  br i1 %32, label %33, label %60

; <label>:33                                      ; preds = %_ZN11OpenImageIO4v1_79fast_coshEf.exit
  br i1 %5, label %_ZN11OpenImageIO4v1_78fast_expIfEET_RKS2_.exit.i, label %34

; <label>:34                                      ; preds = %33
  %35 = fcmp ogt float %4, 1.260000e+02
  %36 = select i1 %35, float 1.260000e+02, float %4
  br label %_ZN11OpenImageIO4v1_78fast_expIfEET_RKS2_.exit.i

_ZN11OpenImageIO4v1_78fast_expIfEET_RKS2_.exit.i: ; preds = %34, %33
  %37 = phi float [ %36, %34 ], [ -1.260000e+02, %33 ]
  %38 = fptosi float %37 to i32
  %39 = sitofp i32 %38 to float
  %40 = fsub float %37, %39
  %41 = fsub float 1.000000e+00, %40
  %42 = fsub float 1.000000e+00, %41
  %43 = fmul float %42, 0x3F55D889C0000000
  %44 = fadd float %43, 0x3F84177340000000
  %45 = fmul float %42, %44
  %46 = fadd float %45, 0x3FAC6CE660000000
  %47 = fmul float %42, %46
  %48 = fadd float %47, 0x3FCEBE3240000000
  %49 = fmul float %42, %48
  %50 = fadd float %49, 0x3FE62E3E20000000
  %51 = fmul float %42, %50
  %52 = fadd float %51, 1.000000e+00
  %53 = bitcast float %52 to i32
  %54 = shl i32 %38, 23
  %55 = add i32 %53, %54
  %56 = bitcast i32 %55 to float
  %57 = fmul float %56, 5.000000e-01
  %58 = fdiv float 5.000000e-01, %56
  %59 = fsub float %57, %58
  br label %_ZN11OpenImageIO4v1_79fast_sinhEf.exit

; <label>:60                                      ; preds = %_ZN11OpenImageIO4v1_79fast_coshEf.exit
  %61 = fsub float 1.000000e+00, %3
  %62 = fsub float 1.000000e+00, %61
  %63 = fmul float %62, %62
  %64 = fmul float %63, 0x3F2ABB46A0000000
  %65 = fadd float %64, 0x3F810F44A0000000
  %66 = fmul float %63, %65
  %67 = fadd float %66, 0x3FC5555B00000000
  %68 = fmul float %62, %67
  %69 = fmul float %63, %68
  %70 = fadd float %62, %69
  br label %_ZN11OpenImageIO4v1_79fast_sinhEf.exit

_ZN11OpenImageIO4v1_79fast_sinhEf.exit:           ; preds = %_ZN11OpenImageIO4v1_78fast_expIfEET_RKS2_.exit.i, %60
  %.sink.i = phi float [ %59, %_ZN11OpenImageIO4v1_78fast_expIfEET_RKS2_.exit.i ], [ %70, %60 ]
  %71 = tail call float @copysignf(float %.sink.i, float %2) #12
  %72 = getelementptr inbounds %"class.OSL::Dual2"* %a, i64 0, i32 1
  %73 = load float* %72, align 4, !tbaa !1
  %74 = fmul float %31, %73
  %75 = getelementptr inbounds %"class.OSL::Dual2"* %a, i64 0, i32 2
  %76 = load float* %75, align 4, !tbaa !1
  %77 = fmul float %31, %76
  %78 = insertelement <2 x float> undef, float %71, i32 0
  %79 = insertelement <2 x float> %78, float %74, i32 1
  %80 = insertvalue { <2 x float>, float } undef, <2 x float> %79, 0
  %81 = insertvalue { <2 x float>, float } %80, float %77, 1
  ret { <2 x float>, float } %81
}

; Function Attrs: nounwind uwtable
define void @osl_sinh_vv(i8* nocapture %r_, i8* nocapture readonly %a_) #4 {
  %1 = bitcast i8* %a_ to float*
  %2 = load float* %1, align 4, !tbaa !1
  %3 = tail call float @fabsf(float %2) #12
  %4 = fcmp ogt float %3, 1.000000e+00
  br i1 %4, label %5, label %34

; <label>:5                                       ; preds = %0
  %6 = fmul float %3, 0x3FF7154760000000
  %7 = fcmp olt float %6, -1.260000e+02
  br i1 %7, label %_ZN11OpenImageIO4v1_78fast_expIfEET_RKS2_.exit.i1, label %8

; <label>:8                                       ; preds = %5
  %9 = fcmp ogt float %6, 1.260000e+02
  %10 = select i1 %9, float 1.260000e+02, float %6
  br label %_ZN11OpenImageIO4v1_78fast_expIfEET_RKS2_.exit.i1

_ZN11OpenImageIO4v1_78fast_expIfEET_RKS2_.exit.i1: ; preds = %8, %5
  %11 = phi float [ %10, %8 ], [ -1.260000e+02, %5 ]
  %12 = fptosi float %11 to i32
  %13 = sitofp i32 %12 to float
  %14 = fsub float %11, %13
  %15 = fsub float 1.000000e+00, %14
  %16 = fsub float 1.000000e+00, %15
  %17 = fmul float %16, 0x3F55D889C0000000
  %18 = fadd float %17, 0x3F84177340000000
  %19 = fmul float %16, %18
  %20 = fadd float %19, 0x3FAC6CE660000000
  %21 = fmul float %16, %20
  %22 = fadd float %21, 0x3FCEBE3240000000
  %23 = fmul float %16, %22
  %24 = fadd float %23, 0x3FE62E3E20000000
  %25 = fmul float %16, %24
  %26 = fadd float %25, 1.000000e+00
  %27 = bitcast float %26 to i32
  %28 = shl i32 %12, 23
  %29 = add i32 %27, %28
  %30 = bitcast i32 %29 to float
  %31 = fmul float %30, 5.000000e-01
  %32 = fdiv float 5.000000e-01, %30
  %33 = fsub float %31, %32
  br label %_ZN11OpenImageIO4v1_79fast_sinhEf.exit3

; <label>:34                                      ; preds = %0
  %35 = fsub float 1.000000e+00, %3
  %36 = fsub float 1.000000e+00, %35
  %37 = fmul float %36, %36
  %38 = fmul float %37, 0x3F2ABB46A0000000
  %39 = fadd float %38, 0x3F810F44A0000000
  %40 = fmul float %37, %39
  %41 = fadd float %40, 0x3FC5555B00000000
  %42 = fmul float %36, %41
  %43 = fmul float %37, %42
  %44 = fadd float %36, %43
  br label %_ZN11OpenImageIO4v1_79fast_sinhEf.exit3

_ZN11OpenImageIO4v1_79fast_sinhEf.exit3:          ; preds = %_ZN11OpenImageIO4v1_78fast_expIfEET_RKS2_.exit.i1, %34
  %.sink.i2 = phi float [ %33, %_ZN11OpenImageIO4v1_78fast_expIfEET_RKS2_.exit.i1 ], [ %44, %34 ]
  %45 = tail call float @copysignf(float %.sink.i2, float %2) #12
  %46 = bitcast i8* %r_ to float*
  store float %45, float* %46, align 4, !tbaa !1
  %47 = getelementptr inbounds i8* %a_, i64 4
  %48 = bitcast i8* %47 to float*
  %49 = load float* %48, align 4, !tbaa !1
  %50 = tail call float @fabsf(float %49) #12
  %51 = fcmp ogt float %50, 1.000000e+00
  br i1 %51, label %52, label %81

; <label>:52                                      ; preds = %_ZN11OpenImageIO4v1_79fast_sinhEf.exit3
  %53 = fmul float %50, 0x3FF7154760000000
  %54 = fcmp olt float %53, -1.260000e+02
  br i1 %54, label %_ZN11OpenImageIO4v1_78fast_expIfEET_RKS2_.exit.i4, label %55

; <label>:55                                      ; preds = %52
  %56 = fcmp ogt float %53, 1.260000e+02
  %57 = select i1 %56, float 1.260000e+02, float %53
  br label %_ZN11OpenImageIO4v1_78fast_expIfEET_RKS2_.exit.i4

_ZN11OpenImageIO4v1_78fast_expIfEET_RKS2_.exit.i4: ; preds = %55, %52
  %58 = phi float [ %57, %55 ], [ -1.260000e+02, %52 ]
  %59 = fptosi float %58 to i32
  %60 = sitofp i32 %59 to float
  %61 = fsub float %58, %60
  %62 = fsub float 1.000000e+00, %61
  %63 = fsub float 1.000000e+00, %62
  %64 = fmul float %63, 0x3F55D889C0000000
  %65 = fadd float %64, 0x3F84177340000000
  %66 = fmul float %63, %65
  %67 = fadd float %66, 0x3FAC6CE660000000
  %68 = fmul float %63, %67
  %69 = fadd float %68, 0x3FCEBE3240000000
  %70 = fmul float %63, %69
  %71 = fadd float %70, 0x3FE62E3E20000000
  %72 = fmul float %63, %71
  %73 = fadd float %72, 1.000000e+00
  %74 = bitcast float %73 to i32
  %75 = shl i32 %59, 23
  %76 = add i32 %74, %75
  %77 = bitcast i32 %76 to float
  %78 = fmul float %77, 5.000000e-01
  %79 = fdiv float 5.000000e-01, %77
  %80 = fsub float %78, %79
  br label %_ZN11OpenImageIO4v1_79fast_sinhEf.exit6

; <label>:81                                      ; preds = %_ZN11OpenImageIO4v1_79fast_sinhEf.exit3
  %82 = fsub float 1.000000e+00, %50
  %83 = fsub float 1.000000e+00, %82
  %84 = fmul float %83, %83
  %85 = fmul float %84, 0x3F2ABB46A0000000
  %86 = fadd float %85, 0x3F810F44A0000000
  %87 = fmul float %84, %86
  %88 = fadd float %87, 0x3FC5555B00000000
  %89 = fmul float %83, %88
  %90 = fmul float %84, %89
  %91 = fadd float %83, %90
  br label %_ZN11OpenImageIO4v1_79fast_sinhEf.exit6

_ZN11OpenImageIO4v1_79fast_sinhEf.exit6:          ; preds = %_ZN11OpenImageIO4v1_78fast_expIfEET_RKS2_.exit.i4, %81
  %.sink.i5 = phi float [ %80, %_ZN11OpenImageIO4v1_78fast_expIfEET_RKS2_.exit.i4 ], [ %91, %81 ]
  %92 = tail call float @copysignf(float %.sink.i5, float %49) #12
  %93 = getelementptr inbounds i8* %r_, i64 4
  %94 = bitcast i8* %93 to float*
  store float %92, float* %94, align 4, !tbaa !1
  %95 = getelementptr inbounds i8* %a_, i64 8
  %96 = bitcast i8* %95 to float*
  %97 = load float* %96, align 4, !tbaa !1
  %98 = tail call float @fabsf(float %97) #12
  %99 = fcmp ogt float %98, 1.000000e+00
  br i1 %99, label %100, label %129

; <label>:100                                     ; preds = %_ZN11OpenImageIO4v1_79fast_sinhEf.exit6
  %101 = fmul float %98, 0x3FF7154760000000
  %102 = fcmp olt float %101, -1.260000e+02
  br i1 %102, label %_ZN11OpenImageIO4v1_78fast_expIfEET_RKS2_.exit.i, label %103

; <label>:103                                     ; preds = %100
  %104 = fcmp ogt float %101, 1.260000e+02
  %105 = select i1 %104, float 1.260000e+02, float %101
  br label %_ZN11OpenImageIO4v1_78fast_expIfEET_RKS2_.exit.i

_ZN11OpenImageIO4v1_78fast_expIfEET_RKS2_.exit.i: ; preds = %103, %100
  %106 = phi float [ %105, %103 ], [ -1.260000e+02, %100 ]
  %107 = fptosi float %106 to i32
  %108 = sitofp i32 %107 to float
  %109 = fsub float %106, %108
  %110 = fsub float 1.000000e+00, %109
  %111 = fsub float 1.000000e+00, %110
  %112 = fmul float %111, 0x3F55D889C0000000
  %113 = fadd float %112, 0x3F84177340000000
  %114 = fmul float %111, %113
  %115 = fadd float %114, 0x3FAC6CE660000000
  %116 = fmul float %111, %115
  %117 = fadd float %116, 0x3FCEBE3240000000
  %118 = fmul float %111, %117
  %119 = fadd float %118, 0x3FE62E3E20000000
  %120 = fmul float %111, %119
  %121 = fadd float %120, 1.000000e+00
  %122 = bitcast float %121 to i32
  %123 = shl i32 %107, 23
  %124 = add i32 %122, %123
  %125 = bitcast i32 %124 to float
  %126 = fmul float %125, 5.000000e-01
  %127 = fdiv float 5.000000e-01, %125
  %128 = fsub float %126, %127
  br label %_ZN11OpenImageIO4v1_79fast_sinhEf.exit

; <label>:129                                     ; preds = %_ZN11OpenImageIO4v1_79fast_sinhEf.exit6
  %130 = fsub float 1.000000e+00, %98
  %131 = fsub float 1.000000e+00, %130
  %132 = fmul float %131, %131
  %133 = fmul float %132, 0x3F2ABB46A0000000
  %134 = fadd float %133, 0x3F810F44A0000000
  %135 = fmul float %132, %134
  %136 = fadd float %135, 0x3FC5555B00000000
  %137 = fmul float %131, %136
  %138 = fmul float %132, %137
  %139 = fadd float %131, %138
  br label %_ZN11OpenImageIO4v1_79fast_sinhEf.exit

_ZN11OpenImageIO4v1_79fast_sinhEf.exit:           ; preds = %_ZN11OpenImageIO4v1_78fast_expIfEET_RKS2_.exit.i, %129
  %.sink.i = phi float [ %128, %_ZN11OpenImageIO4v1_78fast_expIfEET_RKS2_.exit.i ], [ %139, %129 ]
  %140 = tail call float @copysignf(float %.sink.i, float %97) #12
  %141 = getelementptr inbounds i8* %r_, i64 8
  %142 = bitcast i8* %141 to float*
  store float %140, float* %142, align 4, !tbaa !1
  ret void
}

; Function Attrs: nounwind uwtable
define void @osl_sinh_dvdv(i8* nocapture %r_, i8* nocapture readonly %a_) #4 {
  %1 = alloca %"class.OSL::Dual2", align 4
  %2 = alloca %"class.OSL::Dual2", align 4
  %3 = alloca %"class.OSL::Dual2", align 4
  %4 = bitcast i8* %a_ to float*
  %5 = getelementptr inbounds i8* %a_, i64 12
  %6 = bitcast i8* %5 to float*
  %7 = getelementptr inbounds i8* %a_, i64 24
  %8 = bitcast i8* %7 to float*
  %9 = getelementptr inbounds %"class.OSL::Dual2"* %1, i64 0, i32 0
  %10 = load float* %4, align 4, !tbaa !1
  store float %10, float* %9, align 4, !tbaa !9
  %11 = getelementptr inbounds %"class.OSL::Dual2"* %1, i64 0, i32 1
  %12 = load float* %6, align 4, !tbaa !1
  store float %12, float* %11, align 4, !tbaa !11
  %13 = getelementptr inbounds %"class.OSL::Dual2"* %1, i64 0, i32 2
  %14 = load float* %8, align 4, !tbaa !1
  store float %14, float* %13, align 4, !tbaa !12
  %15 = call { <2 x float>, float } @_ZN3OSL9fast_sinhERKNS_5Dual2IfEE(%"class.OSL::Dual2"* dereferenceable(12) %1)
  %16 = extractvalue { <2 x float>, float } %15, 0
  %17 = extractvalue { <2 x float>, float } %15, 1
  %18 = getelementptr inbounds i8* %a_, i64 4
  %19 = bitcast i8* %18 to float*
  %20 = getelementptr inbounds i8* %a_, i64 16
  %21 = bitcast i8* %20 to float*
  %22 = getelementptr inbounds i8* %a_, i64 28
  %23 = bitcast i8* %22 to float*
  %24 = getelementptr inbounds %"class.OSL::Dual2"* %2, i64 0, i32 0
  %25 = load float* %19, align 4, !tbaa !1
  store float %25, float* %24, align 4, !tbaa !9
  %26 = getelementptr inbounds %"class.OSL::Dual2"* %2, i64 0, i32 1
  %27 = load float* %21, align 4, !tbaa !1
  store float %27, float* %26, align 4, !tbaa !11
  %28 = getelementptr inbounds %"class.OSL::Dual2"* %2, i64 0, i32 2
  %29 = load float* %23, align 4, !tbaa !1
  store float %29, float* %28, align 4, !tbaa !12
  %30 = call { <2 x float>, float } @_ZN3OSL9fast_sinhERKNS_5Dual2IfEE(%"class.OSL::Dual2"* dereferenceable(12) %2)
  %31 = extractvalue { <2 x float>, float } %30, 0
  %32 = extractvalue { <2 x float>, float } %30, 1
  %33 = getelementptr inbounds i8* %a_, i64 8
  %34 = bitcast i8* %33 to float*
  %35 = getelementptr inbounds i8* %a_, i64 20
  %36 = bitcast i8* %35 to float*
  %37 = getelementptr inbounds i8* %a_, i64 32
  %38 = bitcast i8* %37 to float*
  %39 = getelementptr inbounds %"class.OSL::Dual2"* %3, i64 0, i32 0
  %40 = load float* %34, align 4, !tbaa !1
  store float %40, float* %39, align 4, !tbaa !9
  %41 = getelementptr inbounds %"class.OSL::Dual2"* %3, i64 0, i32 1
  %42 = load float* %36, align 4, !tbaa !1
  store float %42, float* %41, align 4, !tbaa !11
  %43 = getelementptr inbounds %"class.OSL::Dual2"* %3, i64 0, i32 2
  %44 = load float* %38, align 4, !tbaa !1
  store float %44, float* %43, align 4, !tbaa !12
  %45 = call { <2 x float>, float } @_ZN3OSL9fast_sinhERKNS_5Dual2IfEE(%"class.OSL::Dual2"* dereferenceable(12) %3)
  %46 = extractvalue { <2 x float>, float } %45, 0
  %47 = extractvalue { <2 x float>, float } %45, 1
  %48 = extractelement <2 x float> %16, i32 0
  %49 = extractelement <2 x float> %31, i32 0
  %50 = extractelement <2 x float> %46, i32 0
  %51 = extractelement <2 x float> %16, i32 1
  %52 = extractelement <2 x float> %31, i32 1
  %53 = extractelement <2 x float> %46, i32 1
  %54 = bitcast i8* %r_ to float*
  store float %48, float* %54, align 4, !tbaa !5
  %55 = getelementptr inbounds i8* %r_, i64 4
  %56 = bitcast i8* %55 to float*
  store float %49, float* %56, align 4, !tbaa !7
  %57 = getelementptr inbounds i8* %r_, i64 8
  %58 = bitcast i8* %57 to float*
  store float %50, float* %58, align 4, !tbaa !8
  %59 = getelementptr inbounds i8* %r_, i64 12
  %60 = bitcast i8* %59 to float*
  store float %51, float* %60, align 4, !tbaa !5
  %61 = getelementptr inbounds i8* %r_, i64 16
  %62 = bitcast i8* %61 to float*
  store float %52, float* %62, align 4, !tbaa !7
  %63 = getelementptr inbounds i8* %r_, i64 20
  %64 = bitcast i8* %63 to float*
  store float %53, float* %64, align 4, !tbaa !8
  %65 = getelementptr inbounds i8* %r_, i64 24
  %66 = bitcast i8* %65 to float*
  store float %17, float* %66, align 4, !tbaa !5
  %67 = getelementptr inbounds i8* %r_, i64 28
  %68 = bitcast i8* %67 to float*
  store float %32, float* %68, align 4, !tbaa !7
  %69 = getelementptr inbounds i8* %r_, i64 32
  %70 = bitcast i8* %69 to float*
  store float %47, float* %70, align 4, !tbaa !8
  ret void
}

; Function Attrs: nounwind readnone uwtable
define float @osl_cosh_ff(float %a) #3 {
  %1 = tail call float @fabsf(float %a) #12
  %2 = fmul float %1, 0x3FF7154760000000
  %3 = fcmp olt float %2, -1.260000e+02
  br i1 %3, label %_ZN11OpenImageIO4v1_79fast_coshEf.exit, label %4

; <label>:4                                       ; preds = %0
  %5 = fcmp ogt float %2, 1.260000e+02
  %6 = select i1 %5, float 1.260000e+02, float %2
  br label %_ZN11OpenImageIO4v1_79fast_coshEf.exit

_ZN11OpenImageIO4v1_79fast_coshEf.exit:           ; preds = %0, %4
  %7 = phi float [ %6, %4 ], [ -1.260000e+02, %0 ]
  %8 = fptosi float %7 to i32
  %9 = sitofp i32 %8 to float
  %10 = fsub float %7, %9
  %11 = fsub float 1.000000e+00, %10
  %12 = fsub float 1.000000e+00, %11
  %13 = fmul float %12, 0x3F55D889C0000000
  %14 = fadd float %13, 0x3F84177340000000
  %15 = fmul float %12, %14
  %16 = fadd float %15, 0x3FAC6CE660000000
  %17 = fmul float %12, %16
  %18 = fadd float %17, 0x3FCEBE3240000000
  %19 = fmul float %12, %18
  %20 = fadd float %19, 0x3FE62E3E20000000
  %21 = fmul float %12, %20
  %22 = fadd float %21, 1.000000e+00
  %23 = bitcast float %22 to i32
  %24 = shl i32 %8, 23
  %25 = add i32 %23, %24
  %26 = bitcast i32 %25 to float
  %27 = fmul float %26, 5.000000e-01
  %28 = fdiv float 5.000000e-01, %26
  %29 = fadd float %28, %27
  ret float %29
}

; Function Attrs: nounwind uwtable
define void @osl_cosh_dfdf(i8* nocapture %r, i8* nocapture readonly %a) #4 {
  %1 = bitcast i8* %a to %"class.OSL::Dual2"*
  %2 = tail call { <2 x float>, float } @_ZN3OSL9fast_coshERKNS_5Dual2IfEE(%"class.OSL::Dual2"* dereferenceable(12) %1)
  %3 = extractvalue { <2 x float>, float } %2, 0
  %4 = extractvalue { <2 x float>, float } %2, 1
  %5 = bitcast i8* %r to <2 x float>*
  store <2 x float> %3, <2 x float>* %5, align 4
  %6 = getelementptr inbounds i8* %r, i64 8
  %7 = bitcast i8* %6 to float*
  store float %4, float* %7, align 4
  ret void
}

; Function Attrs: inlinehint nounwind readonly uwtable
define linkonce_odr { <2 x float>, float } @_ZN3OSL9fast_coshERKNS_5Dual2IfEE(%"class.OSL::Dual2"* nocapture readonly dereferenceable(12) %a) #5 {
  %1 = getelementptr inbounds %"class.OSL::Dual2"* %a, i64 0, i32 0
  %2 = load float* %1, align 4, !tbaa !1
  %3 = tail call float @fabsf(float %2) #12
  %4 = fmul float %3, 0x3FF7154760000000
  %5 = fcmp olt float %4, -1.260000e+02
  br i1 %5, label %_ZN11OpenImageIO4v1_79fast_coshEf.exit, label %6

; <label>:6                                       ; preds = %0
  %7 = fcmp ogt float %4, 1.260000e+02
  %8 = select i1 %7, float 1.260000e+02, float %4
  br label %_ZN11OpenImageIO4v1_79fast_coshEf.exit

_ZN11OpenImageIO4v1_79fast_coshEf.exit:           ; preds = %0, %6
  %9 = phi float [ %8, %6 ], [ -1.260000e+02, %0 ]
  %10 = fptosi float %9 to i32
  %11 = sitofp i32 %10 to float
  %12 = fsub float %9, %11
  %13 = fsub float 1.000000e+00, %12
  %14 = fsub float 1.000000e+00, %13
  %15 = fmul float %14, 0x3F55D889C0000000
  %16 = fadd float %15, 0x3F84177340000000
  %17 = fmul float %14, %16
  %18 = fadd float %17, 0x3FAC6CE660000000
  %19 = fmul float %14, %18
  %20 = fadd float %19, 0x3FCEBE3240000000
  %21 = fmul float %14, %20
  %22 = fadd float %21, 0x3FE62E3E20000000
  %23 = fmul float %14, %22
  %24 = fadd float %23, 1.000000e+00
  %25 = bitcast float %24 to i32
  %26 = shl i32 %10, 23
  %27 = add i32 %25, %26
  %28 = bitcast i32 %27 to float
  %29 = fmul float %28, 5.000000e-01
  %30 = fdiv float 5.000000e-01, %28
  %31 = fadd float %30, %29
  %32 = fcmp ogt float %3, 1.000000e+00
  br i1 %32, label %33, label %60

; <label>:33                                      ; preds = %_ZN11OpenImageIO4v1_79fast_coshEf.exit
  br i1 %5, label %_ZN11OpenImageIO4v1_78fast_expIfEET_RKS2_.exit.i, label %34

; <label>:34                                      ; preds = %33
  %35 = fcmp ogt float %4, 1.260000e+02
  %36 = select i1 %35, float 1.260000e+02, float %4
  br label %_ZN11OpenImageIO4v1_78fast_expIfEET_RKS2_.exit.i

_ZN11OpenImageIO4v1_78fast_expIfEET_RKS2_.exit.i: ; preds = %34, %33
  %37 = phi float [ %36, %34 ], [ -1.260000e+02, %33 ]
  %38 = fptosi float %37 to i32
  %39 = sitofp i32 %38 to float
  %40 = fsub float %37, %39
  %41 = fsub float 1.000000e+00, %40
  %42 = fsub float 1.000000e+00, %41
  %43 = fmul float %42, 0x3F55D889C0000000
  %44 = fadd float %43, 0x3F84177340000000
  %45 = fmul float %42, %44
  %46 = fadd float %45, 0x3FAC6CE660000000
  %47 = fmul float %42, %46
  %48 = fadd float %47, 0x3FCEBE3240000000
  %49 = fmul float %42, %48
  %50 = fadd float %49, 0x3FE62E3E20000000
  %51 = fmul float %42, %50
  %52 = fadd float %51, 1.000000e+00
  %53 = bitcast float %52 to i32
  %54 = shl i32 %38, 23
  %55 = add i32 %53, %54
  %56 = bitcast i32 %55 to float
  %57 = fmul float %56, 5.000000e-01
  %58 = fdiv float 5.000000e-01, %56
  %59 = fsub float %57, %58
  br label %_ZN11OpenImageIO4v1_79fast_sinhEf.exit

; <label>:60                                      ; preds = %_ZN11OpenImageIO4v1_79fast_coshEf.exit
  %61 = fsub float 1.000000e+00, %3
  %62 = fsub float 1.000000e+00, %61
  %63 = fmul float %62, %62
  %64 = fmul float %63, 0x3F2ABB46A0000000
  %65 = fadd float %64, 0x3F810F44A0000000
  %66 = fmul float %63, %65
  %67 = fadd float %66, 0x3FC5555B00000000
  %68 = fmul float %62, %67
  %69 = fmul float %63, %68
  %70 = fadd float %62, %69
  br label %_ZN11OpenImageIO4v1_79fast_sinhEf.exit

_ZN11OpenImageIO4v1_79fast_sinhEf.exit:           ; preds = %_ZN11OpenImageIO4v1_78fast_expIfEET_RKS2_.exit.i, %60
  %.sink.i = phi float [ %59, %_ZN11OpenImageIO4v1_78fast_expIfEET_RKS2_.exit.i ], [ %70, %60 ]
  %71 = tail call float @copysignf(float %.sink.i, float %2) #12
  %72 = getelementptr inbounds %"class.OSL::Dual2"* %a, i64 0, i32 1
  %73 = load float* %72, align 4, !tbaa !1
  %74 = fmul float %71, %73
  %75 = getelementptr inbounds %"class.OSL::Dual2"* %a, i64 0, i32 2
  %76 = load float* %75, align 4, !tbaa !1
  %77 = fmul float %71, %76
  %78 = insertelement <2 x float> undef, float %31, i32 0
  %79 = insertelement <2 x float> %78, float %74, i32 1
  %80 = insertvalue { <2 x float>, float } undef, <2 x float> %79, 0
  %81 = insertvalue { <2 x float>, float } %80, float %77, 1
  ret { <2 x float>, float } %81
}

; Function Attrs: nounwind uwtable
define void @osl_cosh_vv(i8* nocapture %r_, i8* nocapture readonly %a_) #4 {
  %1 = bitcast i8* %a_ to float*
  %2 = load float* %1, align 4, !tbaa !1
  %3 = tail call float @fabsf(float %2) #12
  %4 = fmul float %3, 0x3FF7154760000000
  %5 = fcmp olt float %4, -1.260000e+02
  br i1 %5, label %_ZN11OpenImageIO4v1_79fast_coshEf.exit1, label %6

; <label>:6                                       ; preds = %0
  %7 = fcmp ogt float %4, 1.260000e+02
  %8 = select i1 %7, float 1.260000e+02, float %4
  br label %_ZN11OpenImageIO4v1_79fast_coshEf.exit1

_ZN11OpenImageIO4v1_79fast_coshEf.exit1:          ; preds = %0, %6
  %9 = phi float [ %8, %6 ], [ -1.260000e+02, %0 ]
  %10 = fptosi float %9 to i32
  %11 = sitofp i32 %10 to float
  %12 = fsub float %9, %11
  %13 = fsub float 1.000000e+00, %12
  %14 = fsub float 1.000000e+00, %13
  %15 = fmul float %14, 0x3F55D889C0000000
  %16 = fadd float %15, 0x3F84177340000000
  %17 = fmul float %14, %16
  %18 = fadd float %17, 0x3FAC6CE660000000
  %19 = fmul float %14, %18
  %20 = fadd float %19, 0x3FCEBE3240000000
  %21 = fmul float %14, %20
  %22 = fadd float %21, 0x3FE62E3E20000000
  %23 = fmul float %14, %22
  %24 = fadd float %23, 1.000000e+00
  %25 = bitcast float %24 to i32
  %26 = shl i32 %10, 23
  %27 = add i32 %25, %26
  %28 = bitcast i32 %27 to float
  %29 = fmul float %28, 5.000000e-01
  %30 = fdiv float 5.000000e-01, %28
  %31 = fadd float %30, %29
  %32 = bitcast i8* %r_ to float*
  store float %31, float* %32, align 4, !tbaa !1
  %33 = getelementptr inbounds i8* %a_, i64 4
  %34 = bitcast i8* %33 to float*
  %35 = load float* %34, align 4, !tbaa !1
  %36 = tail call float @fabsf(float %35) #12
  %37 = fmul float %36, 0x3FF7154760000000
  %38 = fcmp olt float %37, -1.260000e+02
  br i1 %38, label %_ZN11OpenImageIO4v1_79fast_coshEf.exit2, label %39

; <label>:39                                      ; preds = %_ZN11OpenImageIO4v1_79fast_coshEf.exit1
  %40 = fcmp ogt float %37, 1.260000e+02
  %41 = select i1 %40, float 1.260000e+02, float %37
  br label %_ZN11OpenImageIO4v1_79fast_coshEf.exit2

_ZN11OpenImageIO4v1_79fast_coshEf.exit2:          ; preds = %_ZN11OpenImageIO4v1_79fast_coshEf.exit1, %39
  %42 = phi float [ %41, %39 ], [ -1.260000e+02, %_ZN11OpenImageIO4v1_79fast_coshEf.exit1 ]
  %43 = fptosi float %42 to i32
  %44 = sitofp i32 %43 to float
  %45 = fsub float %42, %44
  %46 = fsub float 1.000000e+00, %45
  %47 = fsub float 1.000000e+00, %46
  %48 = fmul float %47, 0x3F55D889C0000000
  %49 = fadd float %48, 0x3F84177340000000
  %50 = fmul float %47, %49
  %51 = fadd float %50, 0x3FAC6CE660000000
  %52 = fmul float %47, %51
  %53 = fadd float %52, 0x3FCEBE3240000000
  %54 = fmul float %47, %53
  %55 = fadd float %54, 0x3FE62E3E20000000
  %56 = fmul float %47, %55
  %57 = fadd float %56, 1.000000e+00
  %58 = bitcast float %57 to i32
  %59 = shl i32 %43, 23
  %60 = add i32 %58, %59
  %61 = bitcast i32 %60 to float
  %62 = fmul float %61, 5.000000e-01
  %63 = fdiv float 5.000000e-01, %61
  %64 = fadd float %63, %62
  %65 = getelementptr inbounds i8* %r_, i64 4
  %66 = bitcast i8* %65 to float*
  store float %64, float* %66, align 4, !tbaa !1
  %67 = getelementptr inbounds i8* %a_, i64 8
  %68 = bitcast i8* %67 to float*
  %69 = load float* %68, align 4, !tbaa !1
  %70 = tail call float @fabsf(float %69) #12
  %71 = fmul float %70, 0x3FF7154760000000
  %72 = fcmp olt float %71, -1.260000e+02
  br i1 %72, label %_ZN11OpenImageIO4v1_79fast_coshEf.exit, label %73

; <label>:73                                      ; preds = %_ZN11OpenImageIO4v1_79fast_coshEf.exit2
  %74 = fcmp ogt float %71, 1.260000e+02
  %75 = select i1 %74, float 1.260000e+02, float %71
  br label %_ZN11OpenImageIO4v1_79fast_coshEf.exit

_ZN11OpenImageIO4v1_79fast_coshEf.exit:           ; preds = %_ZN11OpenImageIO4v1_79fast_coshEf.exit2, %73
  %76 = phi float [ %75, %73 ], [ -1.260000e+02, %_ZN11OpenImageIO4v1_79fast_coshEf.exit2 ]
  %77 = fptosi float %76 to i32
  %78 = sitofp i32 %77 to float
  %79 = fsub float %76, %78
  %80 = fsub float 1.000000e+00, %79
  %81 = fsub float 1.000000e+00, %80
  %82 = fmul float %81, 0x3F55D889C0000000
  %83 = fadd float %82, 0x3F84177340000000
  %84 = fmul float %81, %83
  %85 = fadd float %84, 0x3FAC6CE660000000
  %86 = fmul float %81, %85
  %87 = fadd float %86, 0x3FCEBE3240000000
  %88 = fmul float %81, %87
  %89 = fadd float %88, 0x3FE62E3E20000000
  %90 = fmul float %81, %89
  %91 = fadd float %90, 1.000000e+00
  %92 = bitcast float %91 to i32
  %93 = shl i32 %77, 23
  %94 = add i32 %92, %93
  %95 = bitcast i32 %94 to float
  %96 = fmul float %95, 5.000000e-01
  %97 = fdiv float 5.000000e-01, %95
  %98 = fadd float %97, %96
  %99 = getelementptr inbounds i8* %r_, i64 8
  %100 = bitcast i8* %99 to float*
  store float %98, float* %100, align 4, !tbaa !1
  ret void
}

; Function Attrs: nounwind uwtable
define void @osl_cosh_dvdv(i8* nocapture %r_, i8* nocapture readonly %a_) #4 {
  %1 = alloca %"class.OSL::Dual2", align 4
  %2 = alloca %"class.OSL::Dual2", align 4
  %3 = alloca %"class.OSL::Dual2", align 4
  %4 = bitcast i8* %a_ to float*
  %5 = getelementptr inbounds i8* %a_, i64 12
  %6 = bitcast i8* %5 to float*
  %7 = getelementptr inbounds i8* %a_, i64 24
  %8 = bitcast i8* %7 to float*
  %9 = getelementptr inbounds %"class.OSL::Dual2"* %1, i64 0, i32 0
  %10 = load float* %4, align 4, !tbaa !1
  store float %10, float* %9, align 4, !tbaa !9
  %11 = getelementptr inbounds %"class.OSL::Dual2"* %1, i64 0, i32 1
  %12 = load float* %6, align 4, !tbaa !1
  store float %12, float* %11, align 4, !tbaa !11
  %13 = getelementptr inbounds %"class.OSL::Dual2"* %1, i64 0, i32 2
  %14 = load float* %8, align 4, !tbaa !1
  store float %14, float* %13, align 4, !tbaa !12
  %15 = call { <2 x float>, float } @_ZN3OSL9fast_coshERKNS_5Dual2IfEE(%"class.OSL::Dual2"* dereferenceable(12) %1)
  %16 = extractvalue { <2 x float>, float } %15, 0
  %17 = extractvalue { <2 x float>, float } %15, 1
  %18 = getelementptr inbounds i8* %a_, i64 4
  %19 = bitcast i8* %18 to float*
  %20 = getelementptr inbounds i8* %a_, i64 16
  %21 = bitcast i8* %20 to float*
  %22 = getelementptr inbounds i8* %a_, i64 28
  %23 = bitcast i8* %22 to float*
  %24 = getelementptr inbounds %"class.OSL::Dual2"* %2, i64 0, i32 0
  %25 = load float* %19, align 4, !tbaa !1
  store float %25, float* %24, align 4, !tbaa !9
  %26 = getelementptr inbounds %"class.OSL::Dual2"* %2, i64 0, i32 1
  %27 = load float* %21, align 4, !tbaa !1
  store float %27, float* %26, align 4, !tbaa !11
  %28 = getelementptr inbounds %"class.OSL::Dual2"* %2, i64 0, i32 2
  %29 = load float* %23, align 4, !tbaa !1
  store float %29, float* %28, align 4, !tbaa !12
  %30 = call { <2 x float>, float } @_ZN3OSL9fast_coshERKNS_5Dual2IfEE(%"class.OSL::Dual2"* dereferenceable(12) %2)
  %31 = extractvalue { <2 x float>, float } %30, 0
  %32 = extractvalue { <2 x float>, float } %30, 1
  %33 = getelementptr inbounds i8* %a_, i64 8
  %34 = bitcast i8* %33 to float*
  %35 = getelementptr inbounds i8* %a_, i64 20
  %36 = bitcast i8* %35 to float*
  %37 = getelementptr inbounds i8* %a_, i64 32
  %38 = bitcast i8* %37 to float*
  %39 = getelementptr inbounds %"class.OSL::Dual2"* %3, i64 0, i32 0
  %40 = load float* %34, align 4, !tbaa !1
  store float %40, float* %39, align 4, !tbaa !9
  %41 = getelementptr inbounds %"class.OSL::Dual2"* %3, i64 0, i32 1
  %42 = load float* %36, align 4, !tbaa !1
  store float %42, float* %41, align 4, !tbaa !11
  %43 = getelementptr inbounds %"class.OSL::Dual2"* %3, i64 0, i32 2
  %44 = load float* %38, align 4, !tbaa !1
  store float %44, float* %43, align 4, !tbaa !12
  %45 = call { <2 x float>, float } @_ZN3OSL9fast_coshERKNS_5Dual2IfEE(%"class.OSL::Dual2"* dereferenceable(12) %3)
  %46 = extractvalue { <2 x float>, float } %45, 0
  %47 = extractvalue { <2 x float>, float } %45, 1
  %48 = extractelement <2 x float> %16, i32 0
  %49 = extractelement <2 x float> %31, i32 0
  %50 = extractelement <2 x float> %46, i32 0
  %51 = extractelement <2 x float> %16, i32 1
  %52 = extractelement <2 x float> %31, i32 1
  %53 = extractelement <2 x float> %46, i32 1
  %54 = bitcast i8* %r_ to float*
  store float %48, float* %54, align 4, !tbaa !5
  %55 = getelementptr inbounds i8* %r_, i64 4
  %56 = bitcast i8* %55 to float*
  store float %49, float* %56, align 4, !tbaa !7
  %57 = getelementptr inbounds i8* %r_, i64 8
  %58 = bitcast i8* %57 to float*
  store float %50, float* %58, align 4, !tbaa !8
  %59 = getelementptr inbounds i8* %r_, i64 12
  %60 = bitcast i8* %59 to float*
  store float %51, float* %60, align 4, !tbaa !5
  %61 = getelementptr inbounds i8* %r_, i64 16
  %62 = bitcast i8* %61 to float*
  store float %52, float* %62, align 4, !tbaa !7
  %63 = getelementptr inbounds i8* %r_, i64 20
  %64 = bitcast i8* %63 to float*
  store float %53, float* %64, align 4, !tbaa !8
  %65 = getelementptr inbounds i8* %r_, i64 24
  %66 = bitcast i8* %65 to float*
  store float %17, float* %66, align 4, !tbaa !5
  %67 = getelementptr inbounds i8* %r_, i64 28
  %68 = bitcast i8* %67 to float*
  store float %32, float* %68, align 4, !tbaa !7
  %69 = getelementptr inbounds i8* %r_, i64 32
  %70 = bitcast i8* %69 to float*
  store float %47, float* %70, align 4, !tbaa !8
  ret void
}

; Function Attrs: nounwind readnone uwtable
define float @osl_tanh_ff(float %a) #3 {
  %1 = tail call float @fabsf(float %a) #12
  %2 = fmul float %1, 2.000000e+00
  %3 = fmul float %2, 0x3FF7154760000000
  %4 = fcmp olt float %3, -1.260000e+02
  br i1 %4, label %_ZN11OpenImageIO4v1_79fast_tanhEf.exit, label %5

; <label>:5                                       ; preds = %0
  %6 = fcmp ogt float %3, 1.260000e+02
  %7 = select i1 %6, float 1.260000e+02, float %3
  br label %_ZN11OpenImageIO4v1_79fast_tanhEf.exit

_ZN11OpenImageIO4v1_79fast_tanhEf.exit:           ; preds = %0, %5
  %8 = phi float [ %7, %5 ], [ -1.260000e+02, %0 ]
  %9 = fptosi float %8 to i32
  %10 = sitofp i32 %9 to float
  %11 = fsub float %8, %10
  %12 = fsub float 1.000000e+00, %11
  %13 = fsub float 1.000000e+00, %12
  %14 = fmul float %13, 0x3F55D889C0000000
  %15 = fadd float %14, 0x3F84177340000000
  %16 = fmul float %13, %15
  %17 = fadd float %16, 0x3FAC6CE660000000
  %18 = fmul float %13, %17
  %19 = fadd float %18, 0x3FCEBE3240000000
  %20 = fmul float %13, %19
  %21 = fadd float %20, 0x3FE62E3E20000000
  %22 = fmul float %13, %21
  %23 = fadd float %22, 1.000000e+00
  %24 = bitcast float %23 to i32
  %25 = shl i32 %9, 23
  %26 = add i32 %24, %25
  %27 = bitcast i32 %26 to float
  %28 = fadd float %27, 1.000000e+00
  %29 = fdiv float 2.000000e+00, %28
  %30 = fsub float 1.000000e+00, %29
  %31 = tail call float @copysignf(float %30, float %a) #12
  ret float %31
}

; Function Attrs: nounwind uwtable
define void @osl_tanh_dfdf(i8* nocapture %r, i8* nocapture readonly %a) #4 {
  %1 = bitcast i8* %a to float*
  %2 = load float* %1, align 4, !tbaa !1
  %3 = tail call float @fabsf(float %2) #12
  %4 = fmul float %3, 2.000000e+00
  %5 = fmul float %4, 0x3FF7154760000000
  %6 = fcmp olt float %5, -1.260000e+02
  br i1 %6, label %_ZN11OpenImageIO4v1_79fast_tanhEf.exit.i, label %7

; <label>:7                                       ; preds = %0
  %8 = fcmp ogt float %5, 1.260000e+02
  %9 = select i1 %8, float 1.260000e+02, float %5
  br label %_ZN11OpenImageIO4v1_79fast_tanhEf.exit.i

_ZN11OpenImageIO4v1_79fast_tanhEf.exit.i:         ; preds = %7, %0
  %10 = phi float [ %9, %7 ], [ -1.260000e+02, %0 ]
  %11 = fptosi float %10 to i32
  %12 = sitofp i32 %11 to float
  %13 = fsub float %10, %12
  %14 = fsub float 1.000000e+00, %13
  %15 = fsub float 1.000000e+00, %14
  %16 = fmul float %15, 0x3F55D889C0000000
  %17 = fadd float %16, 0x3F84177340000000
  %18 = fmul float %15, %17
  %19 = fadd float %18, 0x3FAC6CE660000000
  %20 = fmul float %15, %19
  %21 = fadd float %20, 0x3FCEBE3240000000
  %22 = fmul float %15, %21
  %23 = fadd float %22, 0x3FE62E3E20000000
  %24 = fmul float %15, %23
  %25 = fadd float %24, 1.000000e+00
  %26 = bitcast float %25 to i32
  %27 = shl i32 %11, 23
  %28 = add i32 %26, %27
  %29 = bitcast i32 %28 to float
  %30 = fadd float %29, 1.000000e+00
  %31 = fdiv float 2.000000e+00, %30
  %32 = fsub float 1.000000e+00, %31
  %33 = tail call float @copysignf(float %32, float %2) #12
  %34 = fmul float %3, 0x3FF7154760000000
  %35 = fcmp olt float %34, -1.260000e+02
  br i1 %35, label %_ZN3OSL9fast_tanhERKNS_5Dual2IfEE.exit, label %36

; <label>:36                                      ; preds = %_ZN11OpenImageIO4v1_79fast_tanhEf.exit.i
  %37 = fcmp ogt float %34, 1.260000e+02
  %38 = select i1 %37, float 1.260000e+02, float %34
  br label %_ZN3OSL9fast_tanhERKNS_5Dual2IfEE.exit

_ZN3OSL9fast_tanhERKNS_5Dual2IfEE.exit:           ; preds = %_ZN11OpenImageIO4v1_79fast_tanhEf.exit.i, %36
  %39 = phi float [ %38, %36 ], [ -1.260000e+02, %_ZN11OpenImageIO4v1_79fast_tanhEf.exit.i ]
  %40 = fptosi float %39 to i32
  %41 = sitofp i32 %40 to float
  %42 = fsub float %39, %41
  %43 = fsub float 1.000000e+00, %42
  %44 = fsub float 1.000000e+00, %43
  %45 = fmul float %44, 0x3F55D889C0000000
  %46 = fadd float %45, 0x3F84177340000000
  %47 = fmul float %44, %46
  %48 = fadd float %47, 0x3FAC6CE660000000
  %49 = fmul float %44, %48
  %50 = fadd float %49, 0x3FCEBE3240000000
  %51 = fmul float %44, %50
  %52 = fadd float %51, 0x3FE62E3E20000000
  %53 = fmul float %44, %52
  %54 = fadd float %53, 1.000000e+00
  %55 = bitcast float %54 to i32
  %56 = shl i32 %40, 23
  %57 = add i32 %55, %56
  %58 = bitcast i32 %57 to float
  %59 = fmul float %58, 5.000000e-01
  %60 = fdiv float 5.000000e-01, %58
  %61 = fadd float %60, %59
  %62 = fmul float %61, %61
  %63 = fdiv float 1.000000e+00, %62
  %64 = getelementptr inbounds i8* %a, i64 4
  %65 = bitcast i8* %64 to float*
  %66 = load float* %65, align 4, !tbaa !1
  %67 = fmul float %63, %66
  %68 = getelementptr inbounds i8* %a, i64 8
  %69 = bitcast i8* %68 to float*
  %70 = load float* %69, align 4, !tbaa !1
  %71 = fmul float %63, %70
  %72 = insertelement <2 x float> undef, float %33, i32 0
  %73 = insertelement <2 x float> %72, float %67, i32 1
  %74 = bitcast i8* %r to <2 x float>*
  store <2 x float> %73, <2 x float>* %74, align 4
  %75 = getelementptr inbounds i8* %r, i64 8
  %76 = bitcast i8* %75 to float*
  store float %71, float* %76, align 4
  ret void
}

; Function Attrs: nounwind uwtable
define void @osl_tanh_vv(i8* nocapture %r_, i8* nocapture readonly %a_) #4 {
  %1 = bitcast i8* %a_ to float*
  %2 = load float* %1, align 4, !tbaa !1
  %3 = tail call float @fabsf(float %2) #12
  %4 = fmul float %3, 2.000000e+00
  %5 = fmul float %4, 0x3FF7154760000000
  %6 = fcmp olt float %5, -1.260000e+02
  br i1 %6, label %_ZN11OpenImageIO4v1_79fast_tanhEf.exit1, label %7

; <label>:7                                       ; preds = %0
  %8 = fcmp ogt float %5, 1.260000e+02
  %9 = select i1 %8, float 1.260000e+02, float %5
  br label %_ZN11OpenImageIO4v1_79fast_tanhEf.exit1

_ZN11OpenImageIO4v1_79fast_tanhEf.exit1:          ; preds = %0, %7
  %10 = phi float [ %9, %7 ], [ -1.260000e+02, %0 ]
  %11 = fptosi float %10 to i32
  %12 = sitofp i32 %11 to float
  %13 = fsub float %10, %12
  %14 = fsub float 1.000000e+00, %13
  %15 = fsub float 1.000000e+00, %14
  %16 = fmul float %15, 0x3F55D889C0000000
  %17 = fadd float %16, 0x3F84177340000000
  %18 = fmul float %15, %17
  %19 = fadd float %18, 0x3FAC6CE660000000
  %20 = fmul float %15, %19
  %21 = fadd float %20, 0x3FCEBE3240000000
  %22 = fmul float %15, %21
  %23 = fadd float %22, 0x3FE62E3E20000000
  %24 = fmul float %15, %23
  %25 = fadd float %24, 1.000000e+00
  %26 = bitcast float %25 to i32
  %27 = shl i32 %11, 23
  %28 = add i32 %26, %27
  %29 = bitcast i32 %28 to float
  %30 = fadd float %29, 1.000000e+00
  %31 = fdiv float 2.000000e+00, %30
  %32 = fsub float 1.000000e+00, %31
  %33 = tail call float @copysignf(float %32, float %2) #12
  %34 = bitcast i8* %r_ to float*
  store float %33, float* %34, align 4, !tbaa !1
  %35 = getelementptr inbounds i8* %a_, i64 4
  %36 = bitcast i8* %35 to float*
  %37 = load float* %36, align 4, !tbaa !1
  %38 = tail call float @fabsf(float %37) #12
  %39 = fmul float %38, 2.000000e+00
  %40 = fmul float %39, 0x3FF7154760000000
  %41 = fcmp olt float %40, -1.260000e+02
  br i1 %41, label %_ZN11OpenImageIO4v1_79fast_tanhEf.exit2, label %42

; <label>:42                                      ; preds = %_ZN11OpenImageIO4v1_79fast_tanhEf.exit1
  %43 = fcmp ogt float %40, 1.260000e+02
  %44 = select i1 %43, float 1.260000e+02, float %40
  br label %_ZN11OpenImageIO4v1_79fast_tanhEf.exit2

_ZN11OpenImageIO4v1_79fast_tanhEf.exit2:          ; preds = %_ZN11OpenImageIO4v1_79fast_tanhEf.exit1, %42
  %45 = phi float [ %44, %42 ], [ -1.260000e+02, %_ZN11OpenImageIO4v1_79fast_tanhEf.exit1 ]
  %46 = fptosi float %45 to i32
  %47 = sitofp i32 %46 to float
  %48 = fsub float %45, %47
  %49 = fsub float 1.000000e+00, %48
  %50 = fsub float 1.000000e+00, %49
  %51 = fmul float %50, 0x3F55D889C0000000
  %52 = fadd float %51, 0x3F84177340000000
  %53 = fmul float %50, %52
  %54 = fadd float %53, 0x3FAC6CE660000000
  %55 = fmul float %50, %54
  %56 = fadd float %55, 0x3FCEBE3240000000
  %57 = fmul float %50, %56
  %58 = fadd float %57, 0x3FE62E3E20000000
  %59 = fmul float %50, %58
  %60 = fadd float %59, 1.000000e+00
  %61 = bitcast float %60 to i32
  %62 = shl i32 %46, 23
  %63 = add i32 %61, %62
  %64 = bitcast i32 %63 to float
  %65 = fadd float %64, 1.000000e+00
  %66 = fdiv float 2.000000e+00, %65
  %67 = fsub float 1.000000e+00, %66
  %68 = tail call float @copysignf(float %67, float %37) #12
  %69 = getelementptr inbounds i8* %r_, i64 4
  %70 = bitcast i8* %69 to float*
  store float %68, float* %70, align 4, !tbaa !1
  %71 = getelementptr inbounds i8* %a_, i64 8
  %72 = bitcast i8* %71 to float*
  %73 = load float* %72, align 4, !tbaa !1
  %74 = tail call float @fabsf(float %73) #12
  %75 = fmul float %74, 2.000000e+00
  %76 = fmul float %75, 0x3FF7154760000000
  %77 = fcmp olt float %76, -1.260000e+02
  br i1 %77, label %_ZN11OpenImageIO4v1_79fast_tanhEf.exit, label %78

; <label>:78                                      ; preds = %_ZN11OpenImageIO4v1_79fast_tanhEf.exit2
  %79 = fcmp ogt float %76, 1.260000e+02
  %80 = select i1 %79, float 1.260000e+02, float %76
  br label %_ZN11OpenImageIO4v1_79fast_tanhEf.exit

_ZN11OpenImageIO4v1_79fast_tanhEf.exit:           ; preds = %_ZN11OpenImageIO4v1_79fast_tanhEf.exit2, %78
  %81 = phi float [ %80, %78 ], [ -1.260000e+02, %_ZN11OpenImageIO4v1_79fast_tanhEf.exit2 ]
  %82 = fptosi float %81 to i32
  %83 = sitofp i32 %82 to float
  %84 = fsub float %81, %83
  %85 = fsub float 1.000000e+00, %84
  %86 = fsub float 1.000000e+00, %85
  %87 = fmul float %86, 0x3F55D889C0000000
  %88 = fadd float %87, 0x3F84177340000000
  %89 = fmul float %86, %88
  %90 = fadd float %89, 0x3FAC6CE660000000
  %91 = fmul float %86, %90
  %92 = fadd float %91, 0x3FCEBE3240000000
  %93 = fmul float %86, %92
  %94 = fadd float %93, 0x3FE62E3E20000000
  %95 = fmul float %86, %94
  %96 = fadd float %95, 1.000000e+00
  %97 = bitcast float %96 to i32
  %98 = shl i32 %82, 23
  %99 = add i32 %97, %98
  %100 = bitcast i32 %99 to float
  %101 = fadd float %100, 1.000000e+00
  %102 = fdiv float 2.000000e+00, %101
  %103 = fsub float 1.000000e+00, %102
  %104 = tail call float @copysignf(float %103, float %73) #12
  %105 = getelementptr inbounds i8* %r_, i64 8
  %106 = bitcast i8* %105 to float*
  store float %104, float* %106, align 4, !tbaa !1
  ret void
}

; Function Attrs: nounwind uwtable
define void @osl_tanh_dvdv(i8* nocapture %r_, i8* nocapture readonly %a_) #4 {
  %1 = bitcast i8* %a_ to float*
  %2 = getelementptr inbounds i8* %a_, i64 12
  %3 = bitcast i8* %2 to float*
  %4 = getelementptr inbounds i8* %a_, i64 24
  %5 = bitcast i8* %4 to float*
  %6 = load float* %1, align 4, !tbaa !1
  %7 = load float* %3, align 4, !tbaa !1
  %8 = load float* %5, align 4, !tbaa !1
  %9 = tail call float @fabsf(float %6) #12
  %10 = fmul float %9, 2.000000e+00
  %11 = fmul float %10, 0x3FF7154760000000
  %12 = fcmp olt float %11, -1.260000e+02
  br i1 %12, label %_ZN11OpenImageIO4v1_79fast_tanhEf.exit.i13, label %13

; <label>:13                                      ; preds = %0
  %14 = fcmp ogt float %11, 1.260000e+02
  %15 = select i1 %14, float 1.260000e+02, float %11
  br label %_ZN11OpenImageIO4v1_79fast_tanhEf.exit.i13

_ZN11OpenImageIO4v1_79fast_tanhEf.exit.i13:       ; preds = %13, %0
  %16 = phi float [ %15, %13 ], [ -1.260000e+02, %0 ]
  %17 = fptosi float %16 to i32
  %18 = sitofp i32 %17 to float
  %19 = fsub float %16, %18
  %20 = fsub float 1.000000e+00, %19
  %21 = fsub float 1.000000e+00, %20
  %22 = fmul float %21, 0x3F55D889C0000000
  %23 = fadd float %22, 0x3F84177340000000
  %24 = fmul float %21, %23
  %25 = fadd float %24, 0x3FAC6CE660000000
  %26 = fmul float %21, %25
  %27 = fadd float %26, 0x3FCEBE3240000000
  %28 = fmul float %21, %27
  %29 = fadd float %28, 0x3FE62E3E20000000
  %30 = fmul float %21, %29
  %31 = fadd float %30, 1.000000e+00
  %32 = bitcast float %31 to i32
  %33 = shl i32 %17, 23
  %34 = add i32 %32, %33
  %35 = bitcast i32 %34 to float
  %36 = fadd float %35, 1.000000e+00
  %37 = fdiv float 2.000000e+00, %36
  %38 = fsub float 1.000000e+00, %37
  %39 = tail call float @copysignf(float %38, float %6) #12
  %40 = fmul float %9, 0x3FF7154760000000
  %41 = fcmp olt float %40, -1.260000e+02
  br i1 %41, label %_ZN3OSL9fast_tanhERKNS_5Dual2IfEE.exit14, label %42

; <label>:42                                      ; preds = %_ZN11OpenImageIO4v1_79fast_tanhEf.exit.i13
  %43 = fcmp ogt float %40, 1.260000e+02
  %44 = select i1 %43, float 1.260000e+02, float %40
  br label %_ZN3OSL9fast_tanhERKNS_5Dual2IfEE.exit14

_ZN3OSL9fast_tanhERKNS_5Dual2IfEE.exit14:         ; preds = %_ZN11OpenImageIO4v1_79fast_tanhEf.exit.i13, %42
  %45 = phi float [ %44, %42 ], [ -1.260000e+02, %_ZN11OpenImageIO4v1_79fast_tanhEf.exit.i13 ]
  %46 = fptosi float %45 to i32
  %47 = sitofp i32 %46 to float
  %48 = fsub float %45, %47
  %49 = fsub float 1.000000e+00, %48
  %50 = fsub float 1.000000e+00, %49
  %51 = fmul float %50, 0x3F55D889C0000000
  %52 = fadd float %51, 0x3F84177340000000
  %53 = fmul float %50, %52
  %54 = fadd float %53, 0x3FAC6CE660000000
  %55 = fmul float %50, %54
  %56 = fadd float %55, 0x3FCEBE3240000000
  %57 = fmul float %50, %56
  %58 = fadd float %57, 0x3FE62E3E20000000
  %59 = fmul float %50, %58
  %60 = fadd float %59, 1.000000e+00
  %61 = bitcast float %60 to i32
  %62 = shl i32 %46, 23
  %63 = add i32 %61, %62
  %64 = bitcast i32 %63 to float
  %65 = fmul float %64, 5.000000e-01
  %66 = fdiv float 5.000000e-01, %64
  %67 = fadd float %66, %65
  %68 = fmul float %67, %67
  %69 = fdiv float 1.000000e+00, %68
  %70 = fmul float %7, %69
  %71 = fmul float %8, %69
  %72 = getelementptr inbounds i8* %a_, i64 4
  %73 = bitcast i8* %72 to float*
  %74 = getelementptr inbounds i8* %a_, i64 16
  %75 = bitcast i8* %74 to float*
  %76 = getelementptr inbounds i8* %a_, i64 28
  %77 = bitcast i8* %76 to float*
  %78 = load float* %73, align 4, !tbaa !1
  %79 = load float* %75, align 4, !tbaa !1
  %80 = load float* %77, align 4, !tbaa !1
  %81 = tail call float @fabsf(float %78) #12
  %82 = fmul float %81, 2.000000e+00
  %83 = fmul float %82, 0x3FF7154760000000
  %84 = fcmp olt float %83, -1.260000e+02
  br i1 %84, label %_ZN11OpenImageIO4v1_79fast_tanhEf.exit.i11, label %85

; <label>:85                                      ; preds = %_ZN3OSL9fast_tanhERKNS_5Dual2IfEE.exit14
  %86 = fcmp ogt float %83, 1.260000e+02
  %87 = select i1 %86, float 1.260000e+02, float %83
  br label %_ZN11OpenImageIO4v1_79fast_tanhEf.exit.i11

_ZN11OpenImageIO4v1_79fast_tanhEf.exit.i11:       ; preds = %85, %_ZN3OSL9fast_tanhERKNS_5Dual2IfEE.exit14
  %88 = phi float [ %87, %85 ], [ -1.260000e+02, %_ZN3OSL9fast_tanhERKNS_5Dual2IfEE.exit14 ]
  %89 = fptosi float %88 to i32
  %90 = sitofp i32 %89 to float
  %91 = fsub float %88, %90
  %92 = fsub float 1.000000e+00, %91
  %93 = fsub float 1.000000e+00, %92
  %94 = fmul float %93, 0x3F55D889C0000000
  %95 = fadd float %94, 0x3F84177340000000
  %96 = fmul float %93, %95
  %97 = fadd float %96, 0x3FAC6CE660000000
  %98 = fmul float %93, %97
  %99 = fadd float %98, 0x3FCEBE3240000000
  %100 = fmul float %93, %99
  %101 = fadd float %100, 0x3FE62E3E20000000
  %102 = fmul float %93, %101
  %103 = fadd float %102, 1.000000e+00
  %104 = bitcast float %103 to i32
  %105 = shl i32 %89, 23
  %106 = add i32 %104, %105
  %107 = bitcast i32 %106 to float
  %108 = fadd float %107, 1.000000e+00
  %109 = fdiv float 2.000000e+00, %108
  %110 = fsub float 1.000000e+00, %109
  %111 = tail call float @copysignf(float %110, float %78) #12
  %112 = fmul float %81, 0x3FF7154760000000
  %113 = fcmp olt float %112, -1.260000e+02
  br i1 %113, label %_ZN3OSL9fast_tanhERKNS_5Dual2IfEE.exit12, label %114

; <label>:114                                     ; preds = %_ZN11OpenImageIO4v1_79fast_tanhEf.exit.i11
  %115 = fcmp ogt float %112, 1.260000e+02
  %116 = select i1 %115, float 1.260000e+02, float %112
  br label %_ZN3OSL9fast_tanhERKNS_5Dual2IfEE.exit12

_ZN3OSL9fast_tanhERKNS_5Dual2IfEE.exit12:         ; preds = %_ZN11OpenImageIO4v1_79fast_tanhEf.exit.i11, %114
  %117 = phi float [ %116, %114 ], [ -1.260000e+02, %_ZN11OpenImageIO4v1_79fast_tanhEf.exit.i11 ]
  %118 = fptosi float %117 to i32
  %119 = sitofp i32 %118 to float
  %120 = fsub float %117, %119
  %121 = fsub float 1.000000e+00, %120
  %122 = fsub float 1.000000e+00, %121
  %123 = fmul float %122, 0x3F55D889C0000000
  %124 = fadd float %123, 0x3F84177340000000
  %125 = fmul float %122, %124
  %126 = fadd float %125, 0x3FAC6CE660000000
  %127 = fmul float %122, %126
  %128 = fadd float %127, 0x3FCEBE3240000000
  %129 = fmul float %122, %128
  %130 = fadd float %129, 0x3FE62E3E20000000
  %131 = fmul float %122, %130
  %132 = fadd float %131, 1.000000e+00
  %133 = bitcast float %132 to i32
  %134 = shl i32 %118, 23
  %135 = add i32 %133, %134
  %136 = bitcast i32 %135 to float
  %137 = fmul float %136, 5.000000e-01
  %138 = fdiv float 5.000000e-01, %136
  %139 = fadd float %138, %137
  %140 = fmul float %139, %139
  %141 = fdiv float 1.000000e+00, %140
  %142 = fmul float %79, %141
  %143 = fmul float %80, %141
  %144 = getelementptr inbounds i8* %a_, i64 8
  %145 = bitcast i8* %144 to float*
  %146 = getelementptr inbounds i8* %a_, i64 20
  %147 = bitcast i8* %146 to float*
  %148 = getelementptr inbounds i8* %a_, i64 32
  %149 = bitcast i8* %148 to float*
  %150 = load float* %145, align 4, !tbaa !1
  %151 = load float* %147, align 4, !tbaa !1
  %152 = load float* %149, align 4, !tbaa !1
  %153 = tail call float @fabsf(float %150) #12
  %154 = fmul float %153, 2.000000e+00
  %155 = fmul float %154, 0x3FF7154760000000
  %156 = fcmp olt float %155, -1.260000e+02
  br i1 %156, label %_ZN11OpenImageIO4v1_79fast_tanhEf.exit.i, label %157

; <label>:157                                     ; preds = %_ZN3OSL9fast_tanhERKNS_5Dual2IfEE.exit12
  %158 = fcmp ogt float %155, 1.260000e+02
  %159 = select i1 %158, float 1.260000e+02, float %155
  br label %_ZN11OpenImageIO4v1_79fast_tanhEf.exit.i

_ZN11OpenImageIO4v1_79fast_tanhEf.exit.i:         ; preds = %157, %_ZN3OSL9fast_tanhERKNS_5Dual2IfEE.exit12
  %160 = phi float [ %159, %157 ], [ -1.260000e+02, %_ZN3OSL9fast_tanhERKNS_5Dual2IfEE.exit12 ]
  %161 = fptosi float %160 to i32
  %162 = sitofp i32 %161 to float
  %163 = fsub float %160, %162
  %164 = fsub float 1.000000e+00, %163
  %165 = fsub float 1.000000e+00, %164
  %166 = fmul float %165, 0x3F55D889C0000000
  %167 = fadd float %166, 0x3F84177340000000
  %168 = fmul float %165, %167
  %169 = fadd float %168, 0x3FAC6CE660000000
  %170 = fmul float %165, %169
  %171 = fadd float %170, 0x3FCEBE3240000000
  %172 = fmul float %165, %171
  %173 = fadd float %172, 0x3FE62E3E20000000
  %174 = fmul float %165, %173
  %175 = fadd float %174, 1.000000e+00
  %176 = bitcast float %175 to i32
  %177 = shl i32 %161, 23
  %178 = add i32 %176, %177
  %179 = bitcast i32 %178 to float
  %180 = fadd float %179, 1.000000e+00
  %181 = fdiv float 2.000000e+00, %180
  %182 = fsub float 1.000000e+00, %181
  %183 = tail call float @copysignf(float %182, float %150) #12
  %184 = fmul float %153, 0x3FF7154760000000
  %185 = fcmp olt float %184, -1.260000e+02
  br i1 %185, label %_ZN3OSL9fast_tanhERKNS_5Dual2IfEE.exit, label %186

; <label>:186                                     ; preds = %_ZN11OpenImageIO4v1_79fast_tanhEf.exit.i
  %187 = fcmp ogt float %184, 1.260000e+02
  %188 = select i1 %187, float 1.260000e+02, float %184
  br label %_ZN3OSL9fast_tanhERKNS_5Dual2IfEE.exit

_ZN3OSL9fast_tanhERKNS_5Dual2IfEE.exit:           ; preds = %_ZN11OpenImageIO4v1_79fast_tanhEf.exit.i, %186
  %189 = phi float [ %188, %186 ], [ -1.260000e+02, %_ZN11OpenImageIO4v1_79fast_tanhEf.exit.i ]
  %190 = fptosi float %189 to i32
  %191 = sitofp i32 %190 to float
  %192 = fsub float %189, %191
  %193 = fsub float 1.000000e+00, %192
  %194 = fsub float 1.000000e+00, %193
  %195 = fmul float %194, 0x3F55D889C0000000
  %196 = fadd float %195, 0x3F84177340000000
  %197 = fmul float %194, %196
  %198 = fadd float %197, 0x3FAC6CE660000000
  %199 = fmul float %194, %198
  %200 = fadd float %199, 0x3FCEBE3240000000
  %201 = fmul float %194, %200
  %202 = fadd float %201, 0x3FE62E3E20000000
  %203 = fmul float %194, %202
  %204 = fadd float %203, 1.000000e+00
  %205 = bitcast float %204 to i32
  %206 = shl i32 %190, 23
  %207 = add i32 %205, %206
  %208 = bitcast i32 %207 to float
  %209 = fmul float %208, 5.000000e-01
  %210 = fdiv float 5.000000e-01, %208
  %211 = fadd float %210, %209
  %212 = fmul float %211, %211
  %213 = fdiv float 1.000000e+00, %212
  %214 = fmul float %151, %213
  %215 = fmul float %152, %213
  %216 = bitcast i8* %r_ to float*
  store float %39, float* %216, align 4, !tbaa !5
  %217 = getelementptr inbounds i8* %r_, i64 4
  %218 = bitcast i8* %217 to float*
  store float %111, float* %218, align 4, !tbaa !7
  %219 = getelementptr inbounds i8* %r_, i64 8
  %220 = bitcast i8* %219 to float*
  store float %183, float* %220, align 4, !tbaa !8
  %221 = getelementptr inbounds i8* %r_, i64 12
  %222 = bitcast i8* %221 to float*
  store float %70, float* %222, align 4, !tbaa !5
  %223 = getelementptr inbounds i8* %r_, i64 16
  %224 = bitcast i8* %223 to float*
  store float %142, float* %224, align 4, !tbaa !7
  %225 = getelementptr inbounds i8* %r_, i64 20
  %226 = bitcast i8* %225 to float*
  store float %214, float* %226, align 4, !tbaa !8
  %227 = getelementptr inbounds i8* %r_, i64 24
  %228 = bitcast i8* %227 to float*
  store float %71, float* %228, align 4, !tbaa !5
  %229 = getelementptr inbounds i8* %r_, i64 28
  %230 = bitcast i8* %229 to float*
  store float %143, float* %230, align 4, !tbaa !7
  %231 = getelementptr inbounds i8* %r_, i64 32
  %232 = bitcast i8* %231 to float*
  store float %215, float* %232, align 4, !tbaa !8
  ret void
}

; Function Attrs: nounwind uwtable
define void @osl_sincos_fff(float %x, i8* nocapture %s_, i8* nocapture %c_) #4 {
  %1 = bitcast i8* %s_ to float*
  %2 = bitcast i8* %c_ to float*
  %3 = fmul float %x, 0x3FD45F3060000000
  %4 = tail call float @copysignf(float 5.000000e-01, float %3) #12
  %5 = fadd float %3, %4
  %6 = fptosi float %5 to i32
  %7 = sitofp i32 %6 to float
  %8 = fmul float %7, -3.140625e+00
  %9 = fadd float %8, %x
  %10 = fmul float %7, 0xBF4FB40000000000
  %11 = fadd float %10, %9
  %12 = fmul float %7, 0xBE84440000000000
  %13 = fadd float %12, %11
  %14 = fmul float %7, 0xBD968C2340000000
  %15 = fadd float %14, %13
  %16 = fsub float 0x3FF921FB60000000, %15
  %17 = fsub float 0x3FF921FB60000000, %16
  %18 = fmul float %17, %17
  %19 = and i32 %6, 1
  %20 = icmp ne i32 %19, 0
  br i1 %20, label %21, label %23

; <label>:21                                      ; preds = %0
  %22 = fsub float -0.000000e+00, %17
  br label %23

; <label>:23                                      ; preds = %21, %0
  %.0.i = phi float [ %22, %21 ], [ %17, %0 ]
  %24 = fmul float %18, 0x3EC5E150E0000000
  %25 = fadd float %24, 0xBF29F75D60000000
  %26 = fmul float %18, %25
  %27 = fadd float %26, 0x3F8110EEE0000000
  %28 = fmul float %18, %27
  %29 = fadd float %28, 0xBFC55554C0000000
  %30 = fmul float %29, %.0.i
  %31 = fmul float %18, %30
  %32 = fadd float %.0.i, %31
  %33 = fmul float %18, 0xBE923DB120000000
  %34 = fadd float %33, 0x3EFA00F160000000
  %35 = fmul float %18, %34
  %36 = fadd float %35, 0xBF56C16B00000000
  %37 = fmul float %18, %36
  %38 = fadd float %37, 0x3FA5555540000000
  %39 = fmul float %18, %38
  %40 = fadd float %39, -5.000000e-01
  %41 = fmul float %18, %40
  %42 = fadd float %41, 1.000000e+00
  br i1 %20, label %43, label %_ZN11OpenImageIO4v1_711fast_sincosEfPfS1_.exit

; <label>:43                                      ; preds = %23
  %44 = fsub float -0.000000e+00, %42
  br label %_ZN11OpenImageIO4v1_711fast_sincosEfPfS1_.exit

_ZN11OpenImageIO4v1_711fast_sincosEfPfS1_.exit:   ; preds = %23, %43
  %cu.0.i = phi float [ %44, %43 ], [ %42, %23 ]
  %45 = tail call float @fabsf(float %32) #12
  %46 = fcmp ogt float %45, 1.000000e+00
  %su.0.i = select i1 %46, float 0.000000e+00, float %32
  %47 = tail call float @fabsf(float %cu.0.i) #12
  %48 = fcmp ogt float %47, 1.000000e+00
  %cu.1.i = select i1 %48, float 0.000000e+00, float %cu.0.i
  store float %su.0.i, float* %1, align 4, !tbaa !1
  store float %cu.1.i, float* %2, align 4, !tbaa !1
  ret void
}

; Function Attrs: nounwind uwtable
define void @osl_sincos_dfdff(i8* nocapture readonly %x_, i8* nocapture %s_, i8* nocapture %c_) #4 {
  %1 = bitcast i8* %c_ to float*
  %2 = bitcast i8* %x_ to float*
  %3 = load float* %2, align 4, !tbaa !1
  %4 = fmul float %3, 0x3FD45F3060000000
  %5 = tail call float @copysignf(float 5.000000e-01, float %4) #12
  %6 = fadd float %4, %5
  %7 = fptosi float %6 to i32
  %8 = sitofp i32 %7 to float
  %9 = fmul float %8, -3.140625e+00
  %10 = fadd float %3, %9
  %11 = fmul float %8, 0xBF4FB40000000000
  %12 = fadd float %11, %10
  %13 = fmul float %8, 0xBE84440000000000
  %14 = fadd float %13, %12
  %15 = fmul float %8, 0xBD968C2340000000
  %16 = fadd float %15, %14
  %17 = fsub float 0x3FF921FB60000000, %16
  %18 = fsub float 0x3FF921FB60000000, %17
  %19 = fmul float %18, %18
  %20 = and i32 %7, 1
  %21 = icmp ne i32 %20, 0
  br i1 %21, label %22, label %24

; <label>:22                                      ; preds = %0
  %23 = fsub float -0.000000e+00, %18
  br label %24

; <label>:24                                      ; preds = %22, %0
  %.0.i = phi float [ %23, %22 ], [ %18, %0 ]
  %25 = fmul float %19, 0x3EC5E150E0000000
  %26 = fadd float %25, 0xBF29F75D60000000
  %27 = fmul float %19, %26
  %28 = fadd float %27, 0x3F8110EEE0000000
  %29 = fmul float %19, %28
  %30 = fadd float %29, 0xBFC55554C0000000
  %31 = fmul float %30, %.0.i
  %32 = fmul float %19, %31
  %33 = fadd float %.0.i, %32
  %34 = fmul float %19, 0xBE923DB120000000
  %35 = fadd float %34, 0x3EFA00F160000000
  %36 = fmul float %19, %35
  %37 = fadd float %36, 0xBF56C16B00000000
  %38 = fmul float %19, %37
  %39 = fadd float %38, 0x3FA5555540000000
  %40 = fmul float %19, %39
  %41 = fadd float %40, -5.000000e-01
  %42 = fmul float %19, %41
  %43 = fadd float %42, 1.000000e+00
  br i1 %21, label %44, label %_ZN11OpenImageIO4v1_711fast_sincosEfPfS1_.exit

; <label>:44                                      ; preds = %24
  %45 = fsub float -0.000000e+00, %43
  br label %_ZN11OpenImageIO4v1_711fast_sincosEfPfS1_.exit

_ZN11OpenImageIO4v1_711fast_sincosEfPfS1_.exit:   ; preds = %24, %44
  %cu.0.i = phi float [ %45, %44 ], [ %43, %24 ]
  %46 = tail call float @fabsf(float %33) #12
  %47 = fcmp ogt float %46, 1.000000e+00
  %su.0.i = select i1 %47, float 0.000000e+00, float %33
  %48 = tail call float @fabsf(float %cu.0.i) #12
  %49 = fcmp ogt float %48, 1.000000e+00
  %cu.1.i = select i1 %49, float 0.000000e+00, float %cu.0.i
  %50 = getelementptr inbounds i8* %x_, i64 4
  %51 = bitcast i8* %50 to float*
  %52 = load float* %51, align 4, !tbaa !1
  %53 = getelementptr inbounds i8* %x_, i64 8
  %54 = bitcast i8* %53 to float*
  %55 = load float* %54, align 4, !tbaa !1
  %56 = fmul float %52, %cu.1.i
  %57 = fmul float %cu.1.i, %55
  %58 = bitcast i8* %s_ to float*
  store float %su.0.i, float* %58, align 4
  %59 = getelementptr inbounds i8* %s_, i64 4
  %60 = bitcast i8* %59 to float*
  store float %56, float* %60, align 4
  %61 = getelementptr inbounds i8* %s_, i64 8
  %62 = bitcast i8* %61 to float*
  store float %57, float* %62, align 4
  store float %cu.1.i, float* %1, align 4, !tbaa !1
  ret void
}

; Function Attrs: nounwind uwtable
define void @osl_sincos_dffdf(i8* nocapture readonly %x_, i8* nocapture %s_, i8* nocapture %c_) #4 {
  %1 = bitcast i8* %s_ to float*
  %2 = bitcast i8* %x_ to float*
  %3 = load float* %2, align 4, !tbaa !1
  %4 = fmul float %3, 0x3FD45F3060000000
  %5 = tail call float @copysignf(float 5.000000e-01, float %4) #12
  %6 = fadd float %4, %5
  %7 = fptosi float %6 to i32
  %8 = sitofp i32 %7 to float
  %9 = fmul float %8, -3.140625e+00
  %10 = fadd float %3, %9
  %11 = fmul float %8, 0xBF4FB40000000000
  %12 = fadd float %11, %10
  %13 = fmul float %8, 0xBE84440000000000
  %14 = fadd float %13, %12
  %15 = fmul float %8, 0xBD968C2340000000
  %16 = fadd float %15, %14
  %17 = fsub float 0x3FF921FB60000000, %16
  %18 = fsub float 0x3FF921FB60000000, %17
  %19 = fmul float %18, %18
  %20 = and i32 %7, 1
  %21 = icmp ne i32 %20, 0
  br i1 %21, label %22, label %24

; <label>:22                                      ; preds = %0
  %23 = fsub float -0.000000e+00, %18
  br label %24

; <label>:24                                      ; preds = %22, %0
  %.0.i = phi float [ %23, %22 ], [ %18, %0 ]
  %25 = fmul float %19, 0x3EC5E150E0000000
  %26 = fadd float %25, 0xBF29F75D60000000
  %27 = fmul float %19, %26
  %28 = fadd float %27, 0x3F8110EEE0000000
  %29 = fmul float %19, %28
  %30 = fadd float %29, 0xBFC55554C0000000
  %31 = fmul float %30, %.0.i
  %32 = fmul float %19, %31
  %33 = fadd float %.0.i, %32
  %34 = fmul float %19, 0xBE923DB120000000
  %35 = fadd float %34, 0x3EFA00F160000000
  %36 = fmul float %19, %35
  %37 = fadd float %36, 0xBF56C16B00000000
  %38 = fmul float %19, %37
  %39 = fadd float %38, 0x3FA5555540000000
  %40 = fmul float %19, %39
  %41 = fadd float %40, -5.000000e-01
  %42 = fmul float %19, %41
  %43 = fadd float %42, 1.000000e+00
  br i1 %21, label %44, label %_ZN11OpenImageIO4v1_711fast_sincosEfPfS1_.exit

; <label>:44                                      ; preds = %24
  %45 = fsub float -0.000000e+00, %43
  br label %_ZN11OpenImageIO4v1_711fast_sincosEfPfS1_.exit

_ZN11OpenImageIO4v1_711fast_sincosEfPfS1_.exit:   ; preds = %24, %44
  %cu.0.i = phi float [ %45, %44 ], [ %43, %24 ]
  %46 = tail call float @fabsf(float %33) #12
  %47 = fcmp ogt float %46, 1.000000e+00
  %su.0.i = select i1 %47, float 0.000000e+00, float %33
  %48 = tail call float @fabsf(float %cu.0.i) #12
  %49 = fcmp ogt float %48, 1.000000e+00
  %cu.1.i = select i1 %49, float 0.000000e+00, float %cu.0.i
  %50 = getelementptr inbounds i8* %x_, i64 4
  %51 = bitcast i8* %50 to float*
  %52 = load float* %51, align 4, !tbaa !1
  %53 = getelementptr inbounds i8* %x_, i64 8
  %54 = bitcast i8* %53 to float*
  %55 = load float* %54, align 4, !tbaa !1
  store float %su.0.i, float* %1, align 4, !tbaa !1
  %56 = fmul float %su.0.i, %52
  %57 = fsub float -0.000000e+00, %56
  %58 = fmul float %su.0.i, %55
  %59 = fsub float -0.000000e+00, %58
  %60 = bitcast i8* %c_ to float*
  store float %cu.1.i, float* %60, align 4
  %61 = getelementptr inbounds i8* %c_, i64 4
  %62 = bitcast i8* %61 to float*
  store float %57, float* %62, align 4
  %63 = getelementptr inbounds i8* %c_, i64 8
  %64 = bitcast i8* %63 to float*
  store float %59, float* %64, align 4
  ret void
}

; Function Attrs: nounwind uwtable
define void @osl_sincos_dfdfdf(i8* nocapture readonly %x_, i8* nocapture %s_, i8* nocapture %c_) #4 {
  %1 = bitcast i8* %x_ to float*
  %2 = load float* %1, align 4, !tbaa !1
  %3 = fmul float %2, 0x3FD45F3060000000
  %4 = tail call float @copysignf(float 5.000000e-01, float %3) #12
  %5 = fadd float %3, %4
  %6 = fptosi float %5 to i32
  %7 = sitofp i32 %6 to float
  %8 = fmul float %7, -3.140625e+00
  %9 = fadd float %2, %8
  %10 = fmul float %7, 0xBF4FB40000000000
  %11 = fadd float %10, %9
  %12 = fmul float %7, 0xBE84440000000000
  %13 = fadd float %12, %11
  %14 = fmul float %7, 0xBD968C2340000000
  %15 = fadd float %14, %13
  %16 = fsub float 0x3FF921FB60000000, %15
  %17 = fsub float 0x3FF921FB60000000, %16
  %18 = fmul float %17, %17
  %19 = and i32 %6, 1
  %20 = icmp ne i32 %19, 0
  br i1 %20, label %21, label %23

; <label>:21                                      ; preds = %0
  %22 = fsub float -0.000000e+00, %17
  br label %23

; <label>:23                                      ; preds = %21, %0
  %.0.i = phi float [ %22, %21 ], [ %17, %0 ]
  %24 = fmul float %18, 0x3EC5E150E0000000
  %25 = fadd float %24, 0xBF29F75D60000000
  %26 = fmul float %18, %25
  %27 = fadd float %26, 0x3F8110EEE0000000
  %28 = fmul float %18, %27
  %29 = fadd float %28, 0xBFC55554C0000000
  %30 = fmul float %29, %.0.i
  %31 = fmul float %18, %30
  %32 = fadd float %.0.i, %31
  %33 = fmul float %18, 0xBE923DB120000000
  %34 = fadd float %33, 0x3EFA00F160000000
  %35 = fmul float %18, %34
  %36 = fadd float %35, 0xBF56C16B00000000
  %37 = fmul float %18, %36
  %38 = fadd float %37, 0x3FA5555540000000
  %39 = fmul float %18, %38
  %40 = fadd float %39, -5.000000e-01
  %41 = fmul float %18, %40
  %42 = fadd float %41, 1.000000e+00
  br i1 %20, label %43, label %_ZN11OpenImageIO4v1_711fast_sincosEfPfS1_.exit

; <label>:43                                      ; preds = %23
  %44 = fsub float -0.000000e+00, %42
  br label %_ZN11OpenImageIO4v1_711fast_sincosEfPfS1_.exit

_ZN11OpenImageIO4v1_711fast_sincosEfPfS1_.exit:   ; preds = %23, %43
  %cu.0.i = phi float [ %44, %43 ], [ %42, %23 ]
  %45 = tail call float @fabsf(float %32) #12
  %46 = fcmp ogt float %45, 1.000000e+00
  %su.0.i = select i1 %46, float 0.000000e+00, float %32
  %47 = tail call float @fabsf(float %cu.0.i) #12
  %48 = fcmp ogt float %47, 1.000000e+00
  %cu.1.i = select i1 %48, float 0.000000e+00, float %cu.0.i
  %49 = getelementptr inbounds i8* %x_, i64 4
  %50 = bitcast i8* %49 to float*
  %51 = load float* %50, align 4, !tbaa !1
  %52 = getelementptr inbounds i8* %x_, i64 8
  %53 = bitcast i8* %52 to float*
  %54 = load float* %53, align 4, !tbaa !1
  %55 = fmul float %51, %cu.1.i
  %56 = fmul float %cu.1.i, %54
  %57 = bitcast i8* %s_ to float*
  store float %su.0.i, float* %57, align 4
  %58 = getelementptr inbounds i8* %s_, i64 4
  %59 = bitcast i8* %58 to float*
  store float %55, float* %59, align 4
  %60 = getelementptr inbounds i8* %s_, i64 8
  %61 = bitcast i8* %60 to float*
  store float %56, float* %61, align 4
  %62 = fmul float %su.0.i, %51
  %63 = fsub float -0.000000e+00, %62
  %64 = fmul float %su.0.i, %54
  %65 = fsub float -0.000000e+00, %64
  %66 = bitcast i8* %c_ to float*
  store float %cu.1.i, float* %66, align 4
  %67 = getelementptr inbounds i8* %c_, i64 4
  %68 = bitcast i8* %67 to float*
  store float %63, float* %68, align 4
  %69 = getelementptr inbounds i8* %c_, i64 8
  %70 = bitcast i8* %69 to float*
  store float %65, float* %70, align 4
  ret void
}

; Function Attrs: nounwind uwtable
define void @osl_sincos_vvv(i8* nocapture readonly %x_, i8* nocapture %s_, i8* nocapture %c_) #4 {
  %1 = bitcast i8* %x_ to float*
  %2 = bitcast i8* %s_ to float*
  %3 = bitcast i8* %c_ to float*
  br label %4

; <label>:4                                       ; preds = %_ZN11OpenImageIO4v1_711fast_sincosEfPfS1_.exit, %0
  %indvars.iv = phi i64 [ 0, %0 ], [ %indvars.iv.next, %_ZN11OpenImageIO4v1_711fast_sincosEfPfS1_.exit ]
  %5 = getelementptr inbounds float* %1, i64 %indvars.iv
  %6 = load float* %5, align 4, !tbaa !1
  %7 = getelementptr inbounds float* %2, i64 %indvars.iv
  %8 = getelementptr inbounds float* %3, i64 %indvars.iv
  %9 = fmul float %6, 0x3FD45F3060000000
  %10 = tail call float @copysignf(float 5.000000e-01, float %9) #12
  %11 = fadd float %9, %10
  %12 = fptosi float %11 to i32
  %13 = sitofp i32 %12 to float
  %14 = fmul float %13, -3.140625e+00
  %15 = fadd float %6, %14
  %16 = fmul float %13, 0xBF4FB40000000000
  %17 = fadd float %16, %15
  %18 = fmul float %13, 0xBE84440000000000
  %19 = fadd float %18, %17
  %20 = fmul float %13, 0xBD968C2340000000
  %21 = fadd float %20, %19
  %22 = fsub float 0x3FF921FB60000000, %21
  %23 = fsub float 0x3FF921FB60000000, %22
  %24 = fmul float %23, %23
  %25 = and i32 %12, 1
  %26 = icmp ne i32 %25, 0
  br i1 %26, label %27, label %29

; <label>:27                                      ; preds = %4
  %28 = fsub float -0.000000e+00, %23
  br label %29

; <label>:29                                      ; preds = %27, %4
  %.0.i = phi float [ %28, %27 ], [ %23, %4 ]
  %30 = fmul float %24, 0x3EC5E150E0000000
  %31 = fadd float %30, 0xBF29F75D60000000
  %32 = fmul float %24, %31
  %33 = fadd float %32, 0x3F8110EEE0000000
  %34 = fmul float %24, %33
  %35 = fadd float %34, 0xBFC55554C0000000
  %36 = fmul float %35, %.0.i
  %37 = fmul float %24, %36
  %38 = fadd float %.0.i, %37
  %39 = fmul float %24, 0xBE923DB120000000
  %40 = fadd float %39, 0x3EFA00F160000000
  %41 = fmul float %24, %40
  %42 = fadd float %41, 0xBF56C16B00000000
  %43 = fmul float %24, %42
  %44 = fadd float %43, 0x3FA5555540000000
  %45 = fmul float %24, %44
  %46 = fadd float %45, -5.000000e-01
  %47 = fmul float %24, %46
  %48 = fadd float %47, 1.000000e+00
  br i1 %26, label %49, label %_ZN11OpenImageIO4v1_711fast_sincosEfPfS1_.exit

; <label>:49                                      ; preds = %29
  %50 = fsub float -0.000000e+00, %48
  br label %_ZN11OpenImageIO4v1_711fast_sincosEfPfS1_.exit

_ZN11OpenImageIO4v1_711fast_sincosEfPfS1_.exit:   ; preds = %29, %49
  %cu.0.i = phi float [ %50, %49 ], [ %48, %29 ]
  %51 = tail call float @fabsf(float %38) #12
  %52 = fcmp ogt float %51, 1.000000e+00
  %su.0.i = select i1 %52, float 0.000000e+00, float %38
  %53 = tail call float @fabsf(float %cu.0.i) #12
  %54 = fcmp ogt float %53, 1.000000e+00
  %cu.1.i = select i1 %54, float 0.000000e+00, float %cu.0.i
  store float %su.0.i, float* %7, align 4, !tbaa !1
  store float %cu.1.i, float* %8, align 4, !tbaa !1
  %indvars.iv.next = add nuw nsw i64 %indvars.iv, 1
  %exitcond = icmp eq i64 %indvars.iv.next, 3
  br i1 %exitcond, label %55, label %4

; <label>:55                                      ; preds = %_ZN11OpenImageIO4v1_711fast_sincosEfPfS1_.exit
  ret void
}

; Function Attrs: nounwind uwtable
define void @osl_sincos_dvdvv(i8* nocapture readonly %x_, i8* nocapture %s_, i8* nocapture %c_) #4 {
  %1 = bitcast i8* %x_ to float*
  %2 = getelementptr inbounds i8* %x_, i64 12
  %3 = bitcast i8* %2 to float*
  %4 = getelementptr inbounds i8* %x_, i64 24
  %5 = bitcast i8* %4 to float*
  %6 = bitcast i8* %s_ to float*
  %7 = getelementptr inbounds i8* %s_, i64 12
  %8 = bitcast i8* %7 to float*
  %9 = getelementptr inbounds i8* %s_, i64 24
  %10 = bitcast i8* %9 to float*
  %11 = bitcast i8* %c_ to float*
  br label %12

; <label>:12                                      ; preds = %_ZN11OpenImageIO4v1_711fast_sincosEfPfS1_.exit, %0
  %indvars.iv = phi i64 [ 0, %0 ], [ %indvars.iv.next, %_ZN11OpenImageIO4v1_711fast_sincosEfPfS1_.exit ]
  %13 = getelementptr inbounds float* %1, i64 %indvars.iv
  %14 = load float* %13, align 4, !tbaa !1
  %15 = fmul float %14, 0x3FD45F3060000000
  %16 = tail call float @copysignf(float 5.000000e-01, float %15) #12
  %17 = fadd float %15, %16
  %18 = fptosi float %17 to i32
  %19 = sitofp i32 %18 to float
  %20 = fmul float %19, -3.140625e+00
  %21 = fadd float %14, %20
  %22 = fmul float %19, 0xBF4FB40000000000
  %23 = fadd float %22, %21
  %24 = fmul float %19, 0xBE84440000000000
  %25 = fadd float %24, %23
  %26 = fmul float %19, 0xBD968C2340000000
  %27 = fadd float %26, %25
  %28 = fsub float 0x3FF921FB60000000, %27
  %29 = fsub float 0x3FF921FB60000000, %28
  %30 = fmul float %29, %29
  %31 = and i32 %18, 1
  %32 = icmp ne i32 %31, 0
  br i1 %32, label %33, label %35

; <label>:33                                      ; preds = %12
  %34 = fsub float -0.000000e+00, %29
  br label %35

; <label>:35                                      ; preds = %33, %12
  %.0.i = phi float [ %34, %33 ], [ %29, %12 ]
  %36 = fmul float %30, 0x3EC5E150E0000000
  %37 = fadd float %36, 0xBF29F75D60000000
  %38 = fmul float %30, %37
  %39 = fadd float %38, 0x3F8110EEE0000000
  %40 = fmul float %30, %39
  %41 = fadd float %40, 0xBFC55554C0000000
  %42 = fmul float %41, %.0.i
  %43 = fmul float %30, %42
  %44 = fadd float %.0.i, %43
  %45 = fmul float %30, 0xBE923DB120000000
  %46 = fadd float %45, 0x3EFA00F160000000
  %47 = fmul float %30, %46
  %48 = fadd float %47, 0xBF56C16B00000000
  %49 = fmul float %30, %48
  %50 = fadd float %49, 0x3FA5555540000000
  %51 = fmul float %30, %50
  %52 = fadd float %51, -5.000000e-01
  %53 = fmul float %30, %52
  %54 = fadd float %53, 1.000000e+00
  br i1 %32, label %55, label %_ZN11OpenImageIO4v1_711fast_sincosEfPfS1_.exit

; <label>:55                                      ; preds = %35
  %56 = fsub float -0.000000e+00, %54
  br label %_ZN11OpenImageIO4v1_711fast_sincosEfPfS1_.exit

_ZN11OpenImageIO4v1_711fast_sincosEfPfS1_.exit:   ; preds = %35, %55
  %cu.0.i = phi float [ %56, %55 ], [ %54, %35 ]
  %57 = tail call float @fabsf(float %44) #12
  %58 = fcmp ogt float %57, 1.000000e+00
  %su.0.i = select i1 %58, float 0.000000e+00, float %44
  %59 = tail call float @fabsf(float %cu.0.i) #12
  %60 = fcmp ogt float %59, 1.000000e+00
  %cu.1.i = select i1 %60, float 0.000000e+00, float %cu.0.i
  %61 = getelementptr inbounds float* %3, i64 %indvars.iv
  %62 = load float* %61, align 4, !tbaa !1
  %63 = getelementptr inbounds float* %5, i64 %indvars.iv
  %64 = load float* %63, align 4, !tbaa !1
  %65 = getelementptr inbounds float* %6, i64 %indvars.iv
  store float %su.0.i, float* %65, align 4, !tbaa !1
  %66 = fmul float %62, %cu.1.i
  %67 = getelementptr inbounds float* %8, i64 %indvars.iv
  store float %66, float* %67, align 4, !tbaa !1
  %68 = fmul float %cu.1.i, %64
  %69 = getelementptr inbounds float* %10, i64 %indvars.iv
  store float %68, float* %69, align 4, !tbaa !1
  %70 = getelementptr inbounds float* %11, i64 %indvars.iv
  store float %cu.1.i, float* %70, align 4, !tbaa !1
  %indvars.iv.next = add nuw nsw i64 %indvars.iv, 1
  %exitcond = icmp eq i64 %indvars.iv.next, 3
  br i1 %exitcond, label %71, label %12

; <label>:71                                      ; preds = %_ZN11OpenImageIO4v1_711fast_sincosEfPfS1_.exit
  ret void
}

; Function Attrs: nounwind uwtable
define void @osl_sincos_dvvdv(i8* nocapture readonly %x_, i8* nocapture %s_, i8* nocapture %c_) #4 {
  %1 = bitcast i8* %x_ to float*
  %2 = getelementptr inbounds i8* %x_, i64 12
  %3 = bitcast i8* %2 to float*
  %4 = getelementptr inbounds i8* %x_, i64 24
  %5 = bitcast i8* %4 to float*
  %6 = bitcast i8* %s_ to float*
  %7 = bitcast i8* %c_ to float*
  %8 = getelementptr inbounds i8* %c_, i64 12
  %9 = bitcast i8* %8 to float*
  %10 = getelementptr inbounds i8* %c_, i64 24
  %11 = bitcast i8* %10 to float*
  br label %12

; <label>:12                                      ; preds = %_ZN11OpenImageIO4v1_711fast_sincosEfPfS1_.exit, %0
  %indvars.iv = phi i64 [ 0, %0 ], [ %indvars.iv.next, %_ZN11OpenImageIO4v1_711fast_sincosEfPfS1_.exit ]
  %13 = getelementptr inbounds float* %1, i64 %indvars.iv
  %14 = load float* %13, align 4, !tbaa !1
  %15 = fmul float %14, 0x3FD45F3060000000
  %16 = tail call float @copysignf(float 5.000000e-01, float %15) #12
  %17 = fadd float %15, %16
  %18 = fptosi float %17 to i32
  %19 = sitofp i32 %18 to float
  %20 = fmul float %19, -3.140625e+00
  %21 = fadd float %14, %20
  %22 = fmul float %19, 0xBF4FB40000000000
  %23 = fadd float %22, %21
  %24 = fmul float %19, 0xBE84440000000000
  %25 = fadd float %24, %23
  %26 = fmul float %19, 0xBD968C2340000000
  %27 = fadd float %26, %25
  %28 = fsub float 0x3FF921FB60000000, %27
  %29 = fsub float 0x3FF921FB60000000, %28
  %30 = fmul float %29, %29
  %31 = and i32 %18, 1
  %32 = icmp ne i32 %31, 0
  br i1 %32, label %33, label %35

; <label>:33                                      ; preds = %12
  %34 = fsub float -0.000000e+00, %29
  br label %35

; <label>:35                                      ; preds = %33, %12
  %.0.i = phi float [ %34, %33 ], [ %29, %12 ]
  %36 = fmul float %30, 0x3EC5E150E0000000
  %37 = fadd float %36, 0xBF29F75D60000000
  %38 = fmul float %30, %37
  %39 = fadd float %38, 0x3F8110EEE0000000
  %40 = fmul float %30, %39
  %41 = fadd float %40, 0xBFC55554C0000000
  %42 = fmul float %41, %.0.i
  %43 = fmul float %30, %42
  %44 = fadd float %.0.i, %43
  %45 = fmul float %30, 0xBE923DB120000000
  %46 = fadd float %45, 0x3EFA00F160000000
  %47 = fmul float %30, %46
  %48 = fadd float %47, 0xBF56C16B00000000
  %49 = fmul float %30, %48
  %50 = fadd float %49, 0x3FA5555540000000
  %51 = fmul float %30, %50
  %52 = fadd float %51, -5.000000e-01
  %53 = fmul float %30, %52
  %54 = fadd float %53, 1.000000e+00
  br i1 %32, label %55, label %_ZN11OpenImageIO4v1_711fast_sincosEfPfS1_.exit

; <label>:55                                      ; preds = %35
  %56 = fsub float -0.000000e+00, %54
  br label %_ZN11OpenImageIO4v1_711fast_sincosEfPfS1_.exit

_ZN11OpenImageIO4v1_711fast_sincosEfPfS1_.exit:   ; preds = %35, %55
  %cu.0.i = phi float [ %56, %55 ], [ %54, %35 ]
  %57 = tail call float @fabsf(float %44) #12
  %58 = fcmp ogt float %57, 1.000000e+00
  %su.0.i = select i1 %58, float 0.000000e+00, float %44
  %59 = tail call float @fabsf(float %cu.0.i) #12
  %60 = fcmp ogt float %59, 1.000000e+00
  %cu.1.i = select i1 %60, float 0.000000e+00, float %cu.0.i
  %61 = getelementptr inbounds float* %3, i64 %indvars.iv
  %62 = load float* %61, align 4, !tbaa !1
  %63 = getelementptr inbounds float* %5, i64 %indvars.iv
  %64 = load float* %63, align 4, !tbaa !1
  %65 = getelementptr inbounds float* %6, i64 %indvars.iv
  store float %su.0.i, float* %65, align 4, !tbaa !1
  %66 = getelementptr inbounds float* %7, i64 %indvars.iv
  store float %cu.1.i, float* %66, align 4, !tbaa !1
  %67 = fmul float %su.0.i, %62
  %68 = fsub float -0.000000e+00, %67
  %69 = getelementptr inbounds float* %9, i64 %indvars.iv
  store float %68, float* %69, align 4, !tbaa !1
  %70 = fmul float %su.0.i, %64
  %71 = fsub float -0.000000e+00, %70
  %72 = getelementptr inbounds float* %11, i64 %indvars.iv
  store float %71, float* %72, align 4, !tbaa !1
  %indvars.iv.next = add nuw nsw i64 %indvars.iv, 1
  %exitcond = icmp eq i64 %indvars.iv.next, 3
  br i1 %exitcond, label %73, label %12

; <label>:73                                      ; preds = %_ZN11OpenImageIO4v1_711fast_sincosEfPfS1_.exit
  ret void
}

; Function Attrs: nounwind uwtable
define void @osl_sincos_dvdvdv(i8* nocapture readonly %x_, i8* nocapture %s_, i8* nocapture %c_) #4 {
  %1 = bitcast i8* %x_ to float*
  %2 = getelementptr inbounds i8* %x_, i64 12
  %3 = bitcast i8* %2 to float*
  %4 = getelementptr inbounds i8* %x_, i64 24
  %5 = bitcast i8* %4 to float*
  %6 = bitcast i8* %s_ to float*
  %7 = getelementptr inbounds i8* %s_, i64 12
  %8 = bitcast i8* %7 to float*
  %9 = getelementptr inbounds i8* %s_, i64 24
  %10 = bitcast i8* %9 to float*
  %11 = bitcast i8* %c_ to float*
  %12 = getelementptr inbounds i8* %c_, i64 12
  %13 = bitcast i8* %12 to float*
  %14 = getelementptr inbounds i8* %c_, i64 24
  %15 = bitcast i8* %14 to float*
  br label %16

; <label>:16                                      ; preds = %_ZN11OpenImageIO4v1_711fast_sincosEfPfS1_.exit, %0
  %indvars.iv = phi i64 [ 0, %0 ], [ %indvars.iv.next, %_ZN11OpenImageIO4v1_711fast_sincosEfPfS1_.exit ]
  %17 = getelementptr inbounds float* %1, i64 %indvars.iv
  %18 = load float* %17, align 4, !tbaa !1
  %19 = fmul float %18, 0x3FD45F3060000000
  %20 = tail call float @copysignf(float 5.000000e-01, float %19) #12
  %21 = fadd float %19, %20
  %22 = fptosi float %21 to i32
  %23 = sitofp i32 %22 to float
  %24 = fmul float %23, -3.140625e+00
  %25 = fadd float %18, %24
  %26 = fmul float %23, 0xBF4FB40000000000
  %27 = fadd float %26, %25
  %28 = fmul float %23, 0xBE84440000000000
  %29 = fadd float %28, %27
  %30 = fmul float %23, 0xBD968C2340000000
  %31 = fadd float %30, %29
  %32 = fsub float 0x3FF921FB60000000, %31
  %33 = fsub float 0x3FF921FB60000000, %32
  %34 = fmul float %33, %33
  %35 = and i32 %22, 1
  %36 = icmp ne i32 %35, 0
  br i1 %36, label %37, label %39

; <label>:37                                      ; preds = %16
  %38 = fsub float -0.000000e+00, %33
  br label %39

; <label>:39                                      ; preds = %37, %16
  %.0.i = phi float [ %38, %37 ], [ %33, %16 ]
  %40 = fmul float %34, 0x3EC5E150E0000000
  %41 = fadd float %40, 0xBF29F75D60000000
  %42 = fmul float %34, %41
  %43 = fadd float %42, 0x3F8110EEE0000000
  %44 = fmul float %34, %43
  %45 = fadd float %44, 0xBFC55554C0000000
  %46 = fmul float %45, %.0.i
  %47 = fmul float %34, %46
  %48 = fadd float %.0.i, %47
  %49 = fmul float %34, 0xBE923DB120000000
  %50 = fadd float %49, 0x3EFA00F160000000
  %51 = fmul float %34, %50
  %52 = fadd float %51, 0xBF56C16B00000000
  %53 = fmul float %34, %52
  %54 = fadd float %53, 0x3FA5555540000000
  %55 = fmul float %34, %54
  %56 = fadd float %55, -5.000000e-01
  %57 = fmul float %34, %56
  %58 = fadd float %57, 1.000000e+00
  br i1 %36, label %59, label %_ZN11OpenImageIO4v1_711fast_sincosEfPfS1_.exit

; <label>:59                                      ; preds = %39
  %60 = fsub float -0.000000e+00, %58
  br label %_ZN11OpenImageIO4v1_711fast_sincosEfPfS1_.exit

_ZN11OpenImageIO4v1_711fast_sincosEfPfS1_.exit:   ; preds = %39, %59
  %cu.0.i = phi float [ %60, %59 ], [ %58, %39 ]
  %61 = tail call float @fabsf(float %48) #12
  %62 = fcmp ogt float %61, 1.000000e+00
  %su.0.i = select i1 %62, float 0.000000e+00, float %48
  %63 = tail call float @fabsf(float %cu.0.i) #12
  %64 = fcmp ogt float %63, 1.000000e+00
  %cu.1.i = select i1 %64, float 0.000000e+00, float %cu.0.i
  %65 = getelementptr inbounds float* %3, i64 %indvars.iv
  %66 = load float* %65, align 4, !tbaa !1
  %67 = getelementptr inbounds float* %5, i64 %indvars.iv
  %68 = load float* %67, align 4, !tbaa !1
  %69 = getelementptr inbounds float* %6, i64 %indvars.iv
  store float %su.0.i, float* %69, align 4, !tbaa !1
  %70 = fmul float %66, %cu.1.i
  %71 = getelementptr inbounds float* %8, i64 %indvars.iv
  store float %70, float* %71, align 4, !tbaa !1
  %72 = fmul float %cu.1.i, %68
  %73 = getelementptr inbounds float* %10, i64 %indvars.iv
  store float %72, float* %73, align 4, !tbaa !1
  %74 = getelementptr inbounds float* %11, i64 %indvars.iv
  store float %cu.1.i, float* %74, align 4, !tbaa !1
  %75 = fmul float %su.0.i, %66
  %76 = fsub float -0.000000e+00, %75
  %77 = getelementptr inbounds float* %13, i64 %indvars.iv
  store float %76, float* %77, align 4, !tbaa !1
  %78 = fmul float %su.0.i, %68
  %79 = fsub float -0.000000e+00, %78
  %80 = getelementptr inbounds float* %15, i64 %indvars.iv
  store float %79, float* %80, align 4, !tbaa !1
  %indvars.iv.next = add nuw nsw i64 %indvars.iv, 1
  %exitcond = icmp eq i64 %indvars.iv.next, 3
  br i1 %exitcond, label %81, label %16

; <label>:81                                      ; preds = %_ZN11OpenImageIO4v1_711fast_sincosEfPfS1_.exit
  ret void
}

; Function Attrs: nounwind readnone uwtable
define float @osl_log_ff(float %a) #3 {
  %1 = fcmp olt float %a, 0x3810000000000000
  br i1 %1, label %_ZN11OpenImageIO4v1_78fast_logIfEET_RKS2_.exit, label %2

; <label>:2                                       ; preds = %0
  %3 = fcmp ogt float %a, 0x47EFFFFFE0000000
  %4 = bitcast float %a to i32
  %phitmp.i.i = select i1 %3, i32 2139095039, i32 %4
  br label %_ZN11OpenImageIO4v1_78fast_logIfEET_RKS2_.exit

_ZN11OpenImageIO4v1_78fast_logIfEET_RKS2_.exit:   ; preds = %0, %2
  %5 = phi i32 [ %phitmp.i.i, %2 ], [ 8388608, %0 ]
  %6 = lshr i32 %5, 23
  %7 = add nsw i32 %6, -127
  %8 = and i32 %5, 8388607
  %9 = or i32 %8, 1065353216
  %10 = bitcast i32 %9 to float
  %11 = fadd float %10, -1.000000e+00
  %12 = fmul float %11, %11
  %13 = fmul float %12, %12
  %14 = fmul float %11, 0xBF831161A0000000
  %15 = fadd float %14, 0x3FAAA83920000000
  %16 = fmul float %11, 0x3FDEA2C5A0000000
  %17 = fadd float %16, 0xBFE713CA80000000
  %18 = fmul float %11, %15
  %19 = fadd float %18, 0xBFC19A9FA0000000
  %20 = fmul float %11, %19
  %21 = fadd float %20, 0x3FCEF5B7A0000000
  %22 = fmul float %11, %21
  %23 = fadd float %22, 0xBFD63A40C0000000
  %24 = fmul float %11, %17
  %25 = fadd float %24, 0x3FF7154200000000
  %26 = fmul float %13, %23
  %27 = fmul float %11, %25
  %28 = fadd float %27, %26
  %29 = sitofp i32 %7 to float
  %30 = fadd float %29, %28
  %31 = fmul float %30, 0x3FE62E4300000000
  ret float %31
}

; Function Attrs: nounwind uwtable
define void @osl_log_dfdf(i8* nocapture %r, i8* nocapture readonly %a) #4 {
  %1 = bitcast i8* %a to float*
  %2 = load float* %1, align 4, !tbaa !1
  %3 = fcmp olt float %2, 0x3810000000000000
  br i1 %3, label %_ZN11OpenImageIO4v1_78fast_logIfEET_RKS2_.exit.i, label %4

; <label>:4                                       ; preds = %0
  %5 = fcmp ogt float %2, 0x47EFFFFFE0000000
  %6 = bitcast float %2 to i32
  %phitmp.i.i.i = select i1 %5, i32 2139095039, i32 %6
  br label %_ZN11OpenImageIO4v1_78fast_logIfEET_RKS2_.exit.i

_ZN11OpenImageIO4v1_78fast_logIfEET_RKS2_.exit.i: ; preds = %4, %0
  %7 = phi i32 [ %phitmp.i.i.i, %4 ], [ 8388608, %0 ]
  %8 = lshr i32 %7, 23
  %9 = add nsw i32 %8, -127
  %10 = and i32 %7, 8388607
  %11 = or i32 %10, 1065353216
  %12 = bitcast i32 %11 to float
  %13 = fadd float %12, -1.000000e+00
  %14 = fmul float %13, %13
  %15 = fmul float %14, %14
  %16 = fmul float %13, 0xBF831161A0000000
  %17 = fadd float %16, 0x3FAAA83920000000
  %18 = fmul float %13, 0x3FDEA2C5A0000000
  %19 = fadd float %18, 0xBFE713CA80000000
  %20 = fmul float %13, %17
  %21 = fadd float %20, 0xBFC19A9FA0000000
  %22 = fmul float %13, %21
  %23 = fadd float %22, 0x3FCEF5B7A0000000
  %24 = fmul float %13, %23
  %25 = fadd float %24, 0xBFD63A40C0000000
  %26 = fmul float %13, %19
  %27 = fadd float %26, 0x3FF7154200000000
  %28 = fmul float %15, %25
  %29 = fmul float %13, %27
  %30 = fadd float %29, %28
  %31 = sitofp i32 %9 to float
  %32 = fadd float %31, %30
  %33 = fmul float %32, 0x3FE62E4300000000
  br i1 %3, label %_ZN3OSL8fast_logERKNS_5Dual2IfEE.exit, label %34

; <label>:34                                      ; preds = %_ZN11OpenImageIO4v1_78fast_logIfEET_RKS2_.exit.i
  %35 = fdiv float 1.000000e+00, %2
  br label %_ZN3OSL8fast_logERKNS_5Dual2IfEE.exit

_ZN3OSL8fast_logERKNS_5Dual2IfEE.exit:            ; preds = %_ZN11OpenImageIO4v1_78fast_logIfEET_RKS2_.exit.i, %34
  %36 = phi float [ %35, %34 ], [ 0.000000e+00, %_ZN11OpenImageIO4v1_78fast_logIfEET_RKS2_.exit.i ]
  %37 = getelementptr inbounds i8* %a, i64 4
  %38 = bitcast i8* %37 to float*
  %39 = load float* %38, align 4, !tbaa !1
  %40 = fmul float %36, %39
  %41 = getelementptr inbounds i8* %a, i64 8
  %42 = bitcast i8* %41 to float*
  %43 = load float* %42, align 4, !tbaa !1
  %44 = fmul float %36, %43
  %45 = insertelement <2 x float> undef, float %33, i32 0
  %46 = insertelement <2 x float> %45, float %40, i32 1
  %47 = bitcast i8* %r to <2 x float>*
  store <2 x float> %46, <2 x float>* %47, align 4
  %48 = getelementptr inbounds i8* %r, i64 8
  %49 = bitcast i8* %48 to float*
  store float %44, float* %49, align 4
  ret void
}

; Function Attrs: nounwind uwtable
define void @osl_log_vv(i8* nocapture %r_, i8* nocapture readonly %a_) #4 {
  %1 = bitcast i8* %a_ to float*
  %2 = load float* %1, align 4, !tbaa !1
  %3 = fcmp olt float %2, 0x3810000000000000
  br i1 %3, label %_ZN11OpenImageIO4v1_78fast_logIfEET_RKS2_.exit4, label %4

; <label>:4                                       ; preds = %0
  %5 = fcmp ogt float %2, 0x47EFFFFFE0000000
  %6 = bitcast float %2 to i32
  %phitmp.i.i3 = select i1 %5, i32 2139095039, i32 %6
  br label %_ZN11OpenImageIO4v1_78fast_logIfEET_RKS2_.exit4

_ZN11OpenImageIO4v1_78fast_logIfEET_RKS2_.exit4:  ; preds = %0, %4
  %7 = phi i32 [ %phitmp.i.i3, %4 ], [ 8388608, %0 ]
  %8 = lshr i32 %7, 23
  %9 = add nsw i32 %8, -127
  %10 = and i32 %7, 8388607
  %11 = or i32 %10, 1065353216
  %12 = bitcast i32 %11 to float
  %13 = fadd float %12, -1.000000e+00
  %14 = fmul float %13, %13
  %15 = fmul float %14, %14
  %16 = fmul float %13, 0xBF831161A0000000
  %17 = fadd float %16, 0x3FAAA83920000000
  %18 = fmul float %13, 0x3FDEA2C5A0000000
  %19 = fadd float %18, 0xBFE713CA80000000
  %20 = fmul float %13, %17
  %21 = fadd float %20, 0xBFC19A9FA0000000
  %22 = fmul float %13, %21
  %23 = fadd float %22, 0x3FCEF5B7A0000000
  %24 = fmul float %13, %23
  %25 = fadd float %24, 0xBFD63A40C0000000
  %26 = fmul float %13, %19
  %27 = fadd float %26, 0x3FF7154200000000
  %28 = fmul float %15, %25
  %29 = fmul float %13, %27
  %30 = fadd float %29, %28
  %31 = sitofp i32 %9 to float
  %32 = fadd float %31, %30
  %33 = fmul float %32, 0x3FE62E4300000000
  %34 = bitcast i8* %r_ to float*
  store float %33, float* %34, align 4, !tbaa !1
  %35 = getelementptr inbounds i8* %a_, i64 4
  %36 = bitcast i8* %35 to float*
  %37 = load float* %36, align 4, !tbaa !1
  %38 = fcmp olt float %37, 0x3810000000000000
  br i1 %38, label %_ZN11OpenImageIO4v1_78fast_logIfEET_RKS2_.exit2, label %39

; <label>:39                                      ; preds = %_ZN11OpenImageIO4v1_78fast_logIfEET_RKS2_.exit4
  %40 = fcmp ogt float %37, 0x47EFFFFFE0000000
  %41 = bitcast float %37 to i32
  %phitmp.i.i1 = select i1 %40, i32 2139095039, i32 %41
  br label %_ZN11OpenImageIO4v1_78fast_logIfEET_RKS2_.exit2

_ZN11OpenImageIO4v1_78fast_logIfEET_RKS2_.exit2:  ; preds = %_ZN11OpenImageIO4v1_78fast_logIfEET_RKS2_.exit4, %39
  %42 = phi i32 [ %phitmp.i.i1, %39 ], [ 8388608, %_ZN11OpenImageIO4v1_78fast_logIfEET_RKS2_.exit4 ]
  %43 = lshr i32 %42, 23
  %44 = add nsw i32 %43, -127
  %45 = and i32 %42, 8388607
  %46 = or i32 %45, 1065353216
  %47 = bitcast i32 %46 to float
  %48 = fadd float %47, -1.000000e+00
  %49 = fmul float %48, %48
  %50 = fmul float %49, %49
  %51 = fmul float %48, 0xBF831161A0000000
  %52 = fadd float %51, 0x3FAAA83920000000
  %53 = fmul float %48, 0x3FDEA2C5A0000000
  %54 = fadd float %53, 0xBFE713CA80000000
  %55 = fmul float %48, %52
  %56 = fadd float %55, 0xBFC19A9FA0000000
  %57 = fmul float %48, %56
  %58 = fadd float %57, 0x3FCEF5B7A0000000
  %59 = fmul float %48, %58
  %60 = fadd float %59, 0xBFD63A40C0000000
  %61 = fmul float %48, %54
  %62 = fadd float %61, 0x3FF7154200000000
  %63 = fmul float %50, %60
  %64 = fmul float %48, %62
  %65 = fadd float %64, %63
  %66 = sitofp i32 %44 to float
  %67 = fadd float %66, %65
  %68 = fmul float %67, 0x3FE62E4300000000
  %69 = getelementptr inbounds i8* %r_, i64 4
  %70 = bitcast i8* %69 to float*
  store float %68, float* %70, align 4, !tbaa !1
  %71 = getelementptr inbounds i8* %a_, i64 8
  %72 = bitcast i8* %71 to float*
  %73 = load float* %72, align 4, !tbaa !1
  %74 = fcmp olt float %73, 0x3810000000000000
  br i1 %74, label %_ZN11OpenImageIO4v1_78fast_logIfEET_RKS2_.exit, label %75

; <label>:75                                      ; preds = %_ZN11OpenImageIO4v1_78fast_logIfEET_RKS2_.exit2
  %76 = fcmp ogt float %73, 0x47EFFFFFE0000000
  %77 = bitcast float %73 to i32
  %phitmp.i.i = select i1 %76, i32 2139095039, i32 %77
  br label %_ZN11OpenImageIO4v1_78fast_logIfEET_RKS2_.exit

_ZN11OpenImageIO4v1_78fast_logIfEET_RKS2_.exit:   ; preds = %_ZN11OpenImageIO4v1_78fast_logIfEET_RKS2_.exit2, %75
  %78 = phi i32 [ %phitmp.i.i, %75 ], [ 8388608, %_ZN11OpenImageIO4v1_78fast_logIfEET_RKS2_.exit2 ]
  %79 = lshr i32 %78, 23
  %80 = add nsw i32 %79, -127
  %81 = and i32 %78, 8388607
  %82 = or i32 %81, 1065353216
  %83 = bitcast i32 %82 to float
  %84 = fadd float %83, -1.000000e+00
  %85 = fmul float %84, %84
  %86 = fmul float %85, %85
  %87 = fmul float %84, 0xBF831161A0000000
  %88 = fadd float %87, 0x3FAAA83920000000
  %89 = fmul float %84, 0x3FDEA2C5A0000000
  %90 = fadd float %89, 0xBFE713CA80000000
  %91 = fmul float %84, %88
  %92 = fadd float %91, 0xBFC19A9FA0000000
  %93 = fmul float %84, %92
  %94 = fadd float %93, 0x3FCEF5B7A0000000
  %95 = fmul float %84, %94
  %96 = fadd float %95, 0xBFD63A40C0000000
  %97 = fmul float %84, %90
  %98 = fadd float %97, 0x3FF7154200000000
  %99 = fmul float %86, %96
  %100 = fmul float %84, %98
  %101 = fadd float %100, %99
  %102 = sitofp i32 %80 to float
  %103 = fadd float %102, %101
  %104 = fmul float %103, 0x3FE62E4300000000
  %105 = getelementptr inbounds i8* %r_, i64 8
  %106 = bitcast i8* %105 to float*
  store float %104, float* %106, align 4, !tbaa !1
  ret void
}

; Function Attrs: nounwind uwtable
define void @osl_log_dvdv(i8* nocapture %r_, i8* nocapture readonly %a_) #4 {
  %1 = bitcast i8* %a_ to float*
  %2 = getelementptr inbounds i8* %a_, i64 12
  %3 = bitcast i8* %2 to float*
  %4 = getelementptr inbounds i8* %a_, i64 24
  %5 = bitcast i8* %4 to float*
  %6 = load float* %1, align 4, !tbaa !1
  %7 = load float* %3, align 4, !tbaa !1
  %8 = load float* %5, align 4, !tbaa !1
  %9 = fcmp olt float %6, 0x3810000000000000
  br i1 %9, label %_ZN11OpenImageIO4v1_78fast_logIfEET_RKS2_.exit.i15, label %10

; <label>:10                                      ; preds = %0
  %11 = fcmp ogt float %6, 0x47EFFFFFE0000000
  %12 = bitcast float %6 to i32
  %phitmp.i.i.i14 = select i1 %11, i32 2139095039, i32 %12
  br label %_ZN11OpenImageIO4v1_78fast_logIfEET_RKS2_.exit.i15

_ZN11OpenImageIO4v1_78fast_logIfEET_RKS2_.exit.i15: ; preds = %10, %0
  %13 = phi i32 [ %phitmp.i.i.i14, %10 ], [ 8388608, %0 ]
  %14 = lshr i32 %13, 23
  %15 = add nsw i32 %14, -127
  %16 = and i32 %13, 8388607
  %17 = or i32 %16, 1065353216
  %18 = bitcast i32 %17 to float
  %19 = fadd float %18, -1.000000e+00
  %20 = fmul float %19, %19
  %21 = fmul float %20, %20
  %22 = fmul float %19, 0xBF831161A0000000
  %23 = fadd float %22, 0x3FAAA83920000000
  %24 = fmul float %19, 0x3FDEA2C5A0000000
  %25 = fadd float %24, 0xBFE713CA80000000
  %26 = fmul float %19, %23
  %27 = fadd float %26, 0xBFC19A9FA0000000
  %28 = fmul float %19, %27
  %29 = fadd float %28, 0x3FCEF5B7A0000000
  %30 = fmul float %19, %29
  %31 = fadd float %30, 0xBFD63A40C0000000
  %32 = fmul float %19, %25
  %33 = fadd float %32, 0x3FF7154200000000
  %34 = fmul float %21, %31
  %35 = fmul float %19, %33
  %36 = fadd float %35, %34
  %37 = sitofp i32 %15 to float
  %38 = fadd float %37, %36
  %39 = fmul float %38, 0x3FE62E4300000000
  br i1 %9, label %_ZN3OSL8fast_logERKNS_5Dual2IfEE.exit16, label %40

; <label>:40                                      ; preds = %_ZN11OpenImageIO4v1_78fast_logIfEET_RKS2_.exit.i15
  %41 = fdiv float 1.000000e+00, %6
  br label %_ZN3OSL8fast_logERKNS_5Dual2IfEE.exit16

_ZN3OSL8fast_logERKNS_5Dual2IfEE.exit16:          ; preds = %_ZN11OpenImageIO4v1_78fast_logIfEET_RKS2_.exit.i15, %40
  %42 = phi float [ %41, %40 ], [ 0.000000e+00, %_ZN11OpenImageIO4v1_78fast_logIfEET_RKS2_.exit.i15 ]
  %43 = fmul float %7, %42
  %44 = fmul float %8, %42
  %45 = getelementptr inbounds i8* %a_, i64 4
  %46 = bitcast i8* %45 to float*
  %47 = getelementptr inbounds i8* %a_, i64 16
  %48 = bitcast i8* %47 to float*
  %49 = getelementptr inbounds i8* %a_, i64 28
  %50 = bitcast i8* %49 to float*
  %51 = load float* %46, align 4, !tbaa !1
  %52 = load float* %48, align 4, !tbaa !1
  %53 = load float* %50, align 4, !tbaa !1
  %54 = fcmp olt float %51, 0x3810000000000000
  br i1 %54, label %_ZN11OpenImageIO4v1_78fast_logIfEET_RKS2_.exit.i12, label %55

; <label>:55                                      ; preds = %_ZN3OSL8fast_logERKNS_5Dual2IfEE.exit16
  %56 = fcmp ogt float %51, 0x47EFFFFFE0000000
  %57 = bitcast float %51 to i32
  %phitmp.i.i.i11 = select i1 %56, i32 2139095039, i32 %57
  br label %_ZN11OpenImageIO4v1_78fast_logIfEET_RKS2_.exit.i12

_ZN11OpenImageIO4v1_78fast_logIfEET_RKS2_.exit.i12: ; preds = %55, %_ZN3OSL8fast_logERKNS_5Dual2IfEE.exit16
  %58 = phi i32 [ %phitmp.i.i.i11, %55 ], [ 8388608, %_ZN3OSL8fast_logERKNS_5Dual2IfEE.exit16 ]
  %59 = lshr i32 %58, 23
  %60 = add nsw i32 %59, -127
  %61 = and i32 %58, 8388607
  %62 = or i32 %61, 1065353216
  %63 = bitcast i32 %62 to float
  %64 = fadd float %63, -1.000000e+00
  %65 = fmul float %64, %64
  %66 = fmul float %65, %65
  %67 = fmul float %64, 0xBF831161A0000000
  %68 = fadd float %67, 0x3FAAA83920000000
  %69 = fmul float %64, 0x3FDEA2C5A0000000
  %70 = fadd float %69, 0xBFE713CA80000000
  %71 = fmul float %64, %68
  %72 = fadd float %71, 0xBFC19A9FA0000000
  %73 = fmul float %64, %72
  %74 = fadd float %73, 0x3FCEF5B7A0000000
  %75 = fmul float %64, %74
  %76 = fadd float %75, 0xBFD63A40C0000000
  %77 = fmul float %64, %70
  %78 = fadd float %77, 0x3FF7154200000000
  %79 = fmul float %66, %76
  %80 = fmul float %64, %78
  %81 = fadd float %80, %79
  %82 = sitofp i32 %60 to float
  %83 = fadd float %82, %81
  %84 = fmul float %83, 0x3FE62E4300000000
  br i1 %54, label %_ZN3OSL8fast_logERKNS_5Dual2IfEE.exit13, label %85

; <label>:85                                      ; preds = %_ZN11OpenImageIO4v1_78fast_logIfEET_RKS2_.exit.i12
  %86 = fdiv float 1.000000e+00, %51
  br label %_ZN3OSL8fast_logERKNS_5Dual2IfEE.exit13

_ZN3OSL8fast_logERKNS_5Dual2IfEE.exit13:          ; preds = %_ZN11OpenImageIO4v1_78fast_logIfEET_RKS2_.exit.i12, %85
  %87 = phi float [ %86, %85 ], [ 0.000000e+00, %_ZN11OpenImageIO4v1_78fast_logIfEET_RKS2_.exit.i12 ]
  %88 = fmul float %52, %87
  %89 = fmul float %53, %87
  %90 = getelementptr inbounds i8* %a_, i64 8
  %91 = bitcast i8* %90 to float*
  %92 = getelementptr inbounds i8* %a_, i64 20
  %93 = bitcast i8* %92 to float*
  %94 = getelementptr inbounds i8* %a_, i64 32
  %95 = bitcast i8* %94 to float*
  %96 = load float* %91, align 4, !tbaa !1
  %97 = load float* %93, align 4, !tbaa !1
  %98 = load float* %95, align 4, !tbaa !1
  %99 = fcmp olt float %96, 0x3810000000000000
  br i1 %99, label %_ZN11OpenImageIO4v1_78fast_logIfEET_RKS2_.exit.i, label %100

; <label>:100                                     ; preds = %_ZN3OSL8fast_logERKNS_5Dual2IfEE.exit13
  %101 = fcmp ogt float %96, 0x47EFFFFFE0000000
  %102 = bitcast float %96 to i32
  %phitmp.i.i.i = select i1 %101, i32 2139095039, i32 %102
  br label %_ZN11OpenImageIO4v1_78fast_logIfEET_RKS2_.exit.i

_ZN11OpenImageIO4v1_78fast_logIfEET_RKS2_.exit.i: ; preds = %100, %_ZN3OSL8fast_logERKNS_5Dual2IfEE.exit13
  %103 = phi i32 [ %phitmp.i.i.i, %100 ], [ 8388608, %_ZN3OSL8fast_logERKNS_5Dual2IfEE.exit13 ]
  %104 = lshr i32 %103, 23
  %105 = add nsw i32 %104, -127
  %106 = and i32 %103, 8388607
  %107 = or i32 %106, 1065353216
  %108 = bitcast i32 %107 to float
  %109 = fadd float %108, -1.000000e+00
  %110 = fmul float %109, %109
  %111 = fmul float %110, %110
  %112 = fmul float %109, 0xBF831161A0000000
  %113 = fadd float %112, 0x3FAAA83920000000
  %114 = fmul float %109, 0x3FDEA2C5A0000000
  %115 = fadd float %114, 0xBFE713CA80000000
  %116 = fmul float %109, %113
  %117 = fadd float %116, 0xBFC19A9FA0000000
  %118 = fmul float %109, %117
  %119 = fadd float %118, 0x3FCEF5B7A0000000
  %120 = fmul float %109, %119
  %121 = fadd float %120, 0xBFD63A40C0000000
  %122 = fmul float %109, %115
  %123 = fadd float %122, 0x3FF7154200000000
  %124 = fmul float %111, %121
  %125 = fmul float %109, %123
  %126 = fadd float %125, %124
  %127 = sitofp i32 %105 to float
  %128 = fadd float %127, %126
  %129 = fmul float %128, 0x3FE62E4300000000
  br i1 %99, label %_ZN3OSL8fast_logERKNS_5Dual2IfEE.exit, label %130

; <label>:130                                     ; preds = %_ZN11OpenImageIO4v1_78fast_logIfEET_RKS2_.exit.i
  %131 = fdiv float 1.000000e+00, %96
  br label %_ZN3OSL8fast_logERKNS_5Dual2IfEE.exit

_ZN3OSL8fast_logERKNS_5Dual2IfEE.exit:            ; preds = %_ZN11OpenImageIO4v1_78fast_logIfEET_RKS2_.exit.i, %130
  %132 = phi float [ %131, %130 ], [ 0.000000e+00, %_ZN11OpenImageIO4v1_78fast_logIfEET_RKS2_.exit.i ]
  %133 = fmul float %97, %132
  %134 = fmul float %98, %132
  %135 = bitcast i8* %r_ to float*
  store float %39, float* %135, align 4, !tbaa !5
  %136 = getelementptr inbounds i8* %r_, i64 4
  %137 = bitcast i8* %136 to float*
  store float %84, float* %137, align 4, !tbaa !7
  %138 = getelementptr inbounds i8* %r_, i64 8
  %139 = bitcast i8* %138 to float*
  store float %129, float* %139, align 4, !tbaa !8
  %140 = getelementptr inbounds i8* %r_, i64 12
  %141 = bitcast i8* %140 to float*
  store float %43, float* %141, align 4, !tbaa !5
  %142 = getelementptr inbounds i8* %r_, i64 16
  %143 = bitcast i8* %142 to float*
  store float %88, float* %143, align 4, !tbaa !7
  %144 = getelementptr inbounds i8* %r_, i64 20
  %145 = bitcast i8* %144 to float*
  store float %133, float* %145, align 4, !tbaa !8
  %146 = getelementptr inbounds i8* %r_, i64 24
  %147 = bitcast i8* %146 to float*
  store float %44, float* %147, align 4, !tbaa !5
  %148 = getelementptr inbounds i8* %r_, i64 28
  %149 = bitcast i8* %148 to float*
  store float %89, float* %149, align 4, !tbaa !7
  %150 = getelementptr inbounds i8* %r_, i64 32
  %151 = bitcast i8* %150 to float*
  store float %134, float* %151, align 4, !tbaa !8
  ret void
}

; Function Attrs: nounwind readnone uwtable
define float @osl_log2_ff(float %a) #3 {
  %1 = fcmp olt float %a, 0x3810000000000000
  br i1 %1, label %_ZN11OpenImageIO4v1_79fast_log2IfEET_RKS2_.exit, label %2

; <label>:2                                       ; preds = %0
  %3 = fcmp ogt float %a, 0x47EFFFFFE0000000
  %4 = bitcast float %a to i32
  %phitmp.i = select i1 %3, i32 2139095039, i32 %4
  br label %_ZN11OpenImageIO4v1_79fast_log2IfEET_RKS2_.exit

_ZN11OpenImageIO4v1_79fast_log2IfEET_RKS2_.exit:  ; preds = %0, %2
  %5 = phi i32 [ %phitmp.i, %2 ], [ 8388608, %0 ]
  %6 = lshr i32 %5, 23
  %7 = add nsw i32 %6, -127
  %8 = and i32 %5, 8388607
  %9 = or i32 %8, 1065353216
  %10 = bitcast i32 %9 to float
  %11 = fadd float %10, -1.000000e+00
  %12 = fmul float %11, %11
  %13 = fmul float %12, %12
  %14 = fmul float %11, 0xBF831161A0000000
  %15 = fadd float %14, 0x3FAAA83920000000
  %16 = fmul float %11, 0x3FDEA2C5A0000000
  %17 = fadd float %16, 0xBFE713CA80000000
  %18 = fmul float %11, %15
  %19 = fadd float %18, 0xBFC19A9FA0000000
  %20 = fmul float %11, %19
  %21 = fadd float %20, 0x3FCEF5B7A0000000
  %22 = fmul float %11, %21
  %23 = fadd float %22, 0xBFD63A40C0000000
  %24 = fmul float %11, %17
  %25 = fadd float %24, 0x3FF7154200000000
  %26 = fmul float %13, %23
  %27 = fmul float %11, %25
  %28 = fadd float %27, %26
  %29 = sitofp i32 %7 to float
  %30 = fadd float %29, %28
  ret float %30
}

; Function Attrs: nounwind uwtable
define void @osl_log2_dfdf(i8* nocapture %r, i8* nocapture readonly %a) #4 {
  %1 = bitcast i8* %a to float*
  %2 = load float* %1, align 4, !tbaa !1
  %3 = fcmp olt float %2, 0x3810000000000000
  br i1 %3, label %_ZN11OpenImageIO4v1_79fast_log2IfEET_RKS2_.exit.i, label %4

; <label>:4                                       ; preds = %0
  %5 = fcmp ogt float %2, 0x47EFFFFFE0000000
  %6 = bitcast float %2 to i32
  %phitmp.i.i = select i1 %5, i32 2139095039, i32 %6
  br label %_ZN11OpenImageIO4v1_79fast_log2IfEET_RKS2_.exit.i

_ZN11OpenImageIO4v1_79fast_log2IfEET_RKS2_.exit.i: ; preds = %4, %0
  %7 = phi i32 [ %phitmp.i.i, %4 ], [ 8388608, %0 ]
  %8 = lshr i32 %7, 23
  %9 = add nsw i32 %8, -127
  %10 = and i32 %7, 8388607
  %11 = or i32 %10, 1065353216
  %12 = bitcast i32 %11 to float
  %13 = fadd float %12, -1.000000e+00
  %14 = fmul float %13, %13
  %15 = fmul float %14, %14
  %16 = fmul float %13, 0xBF831161A0000000
  %17 = fadd float %16, 0x3FAAA83920000000
  %18 = fmul float %13, 0x3FDEA2C5A0000000
  %19 = fadd float %18, 0xBFE713CA80000000
  %20 = fmul float %13, %17
  %21 = fadd float %20, 0xBFC19A9FA0000000
  %22 = fmul float %13, %21
  %23 = fadd float %22, 0x3FCEF5B7A0000000
  %24 = fmul float %13, %23
  %25 = fadd float %24, 0xBFD63A40C0000000
  %26 = fmul float %13, %19
  %27 = fadd float %26, 0x3FF7154200000000
  %28 = fmul float %15, %25
  %29 = fmul float %13, %27
  %30 = fadd float %29, %28
  %31 = sitofp i32 %9 to float
  %32 = fadd float %31, %30
  %33 = fmul float %2, 0x3FE62E4300000000
  %34 = fcmp olt float %33, 0x3810000000000000
  br i1 %34, label %_ZN3OSL9fast_log2ERKNS_5Dual2IfEE.exit, label %35

; <label>:35                                      ; preds = %_ZN11OpenImageIO4v1_79fast_log2IfEET_RKS2_.exit.i
  %36 = fdiv float 1.000000e+00, %33
  br label %_ZN3OSL9fast_log2ERKNS_5Dual2IfEE.exit

_ZN3OSL9fast_log2ERKNS_5Dual2IfEE.exit:           ; preds = %_ZN11OpenImageIO4v1_79fast_log2IfEET_RKS2_.exit.i, %35
  %37 = phi float [ %36, %35 ], [ 0.000000e+00, %_ZN11OpenImageIO4v1_79fast_log2IfEET_RKS2_.exit.i ]
  %38 = getelementptr inbounds i8* %a, i64 4
  %39 = bitcast i8* %38 to float*
  %40 = load float* %39, align 4, !tbaa !1
  %41 = fmul float %37, %40
  %42 = getelementptr inbounds i8* %a, i64 8
  %43 = bitcast i8* %42 to float*
  %44 = load float* %43, align 4, !tbaa !1
  %45 = fmul float %37, %44
  %46 = insertelement <2 x float> undef, float %32, i32 0
  %47 = insertelement <2 x float> %46, float %41, i32 1
  %48 = bitcast i8* %r to <2 x float>*
  store <2 x float> %47, <2 x float>* %48, align 4
  %49 = getelementptr inbounds i8* %r, i64 8
  %50 = bitcast i8* %49 to float*
  store float %45, float* %50, align 4
  ret void
}

; Function Attrs: nounwind uwtable
define void @osl_log2_vv(i8* nocapture %r_, i8* nocapture readonly %a_) #4 {
  %1 = bitcast i8* %a_ to float*
  %2 = load float* %1, align 4, !tbaa !1
  %3 = fcmp olt float %2, 0x3810000000000000
  br i1 %3, label %_ZN11OpenImageIO4v1_79fast_log2IfEET_RKS2_.exit4, label %4

; <label>:4                                       ; preds = %0
  %5 = fcmp ogt float %2, 0x47EFFFFFE0000000
  %6 = bitcast float %2 to i32
  %phitmp.i3 = select i1 %5, i32 2139095039, i32 %6
  br label %_ZN11OpenImageIO4v1_79fast_log2IfEET_RKS2_.exit4

_ZN11OpenImageIO4v1_79fast_log2IfEET_RKS2_.exit4: ; preds = %0, %4
  %7 = phi i32 [ %phitmp.i3, %4 ], [ 8388608, %0 ]
  %8 = lshr i32 %7, 23
  %9 = add nsw i32 %8, -127
  %10 = and i32 %7, 8388607
  %11 = or i32 %10, 1065353216
  %12 = bitcast i32 %11 to float
  %13 = fadd float %12, -1.000000e+00
  %14 = fmul float %13, %13
  %15 = fmul float %14, %14
  %16 = fmul float %13, 0xBF831161A0000000
  %17 = fadd float %16, 0x3FAAA83920000000
  %18 = fmul float %13, 0x3FDEA2C5A0000000
  %19 = fadd float %18, 0xBFE713CA80000000
  %20 = fmul float %13, %17
  %21 = fadd float %20, 0xBFC19A9FA0000000
  %22 = fmul float %13, %21
  %23 = fadd float %22, 0x3FCEF5B7A0000000
  %24 = fmul float %13, %23
  %25 = fadd float %24, 0xBFD63A40C0000000
  %26 = fmul float %13, %19
  %27 = fadd float %26, 0x3FF7154200000000
  %28 = fmul float %15, %25
  %29 = fmul float %13, %27
  %30 = fadd float %29, %28
  %31 = sitofp i32 %9 to float
  %32 = fadd float %31, %30
  %33 = bitcast i8* %r_ to float*
  store float %32, float* %33, align 4, !tbaa !1
  %34 = getelementptr inbounds i8* %a_, i64 4
  %35 = bitcast i8* %34 to float*
  %36 = load float* %35, align 4, !tbaa !1
  %37 = fcmp olt float %36, 0x3810000000000000
  br i1 %37, label %_ZN11OpenImageIO4v1_79fast_log2IfEET_RKS2_.exit2, label %38

; <label>:38                                      ; preds = %_ZN11OpenImageIO4v1_79fast_log2IfEET_RKS2_.exit4
  %39 = fcmp ogt float %36, 0x47EFFFFFE0000000
  %40 = bitcast float %36 to i32
  %phitmp.i1 = select i1 %39, i32 2139095039, i32 %40
  br label %_ZN11OpenImageIO4v1_79fast_log2IfEET_RKS2_.exit2

_ZN11OpenImageIO4v1_79fast_log2IfEET_RKS2_.exit2: ; preds = %_ZN11OpenImageIO4v1_79fast_log2IfEET_RKS2_.exit4, %38
  %41 = phi i32 [ %phitmp.i1, %38 ], [ 8388608, %_ZN11OpenImageIO4v1_79fast_log2IfEET_RKS2_.exit4 ]
